(lp0
(c__builtin__
frozenset
p1
((lp2
I134228773
aI134236965
atp3
Rp4
F1158.38
tp5
a(g1
((lp6
I134224677
aI134228773
atp7
Rp8
F1182.34
tp9
a(g1
((lp10
I134224677
aI134236965
atp11
Rp12
F1204.78
tp13
a(g1
((lp14
I4212241
aI4204049
atp15
Rp16
F1414.136
tp17
a(g1
((lp18
I2102541
aI2131213
atp19
Rp20
F1415.196
tp21
a(g1
((lp22
I4204049
aI4199953
atp23
Rp24
F1427.904
tp25
a(g1
((lp26
I2131213
aI2114829
atp27
Rp28
F1436.48
tp29
a(g1
((lp30
I4212241
aI4199953
atp31
Rp32
F1449.052
tp33
a(g1
((lp34
I2102541
aI2114829
atp35
Rp36
F1474.408
tp37
a(g1
((lp38
I2131213
aI134228773
atp39
Rp40
F2135.104
tp41
a(g1
((lp42
I4204049
aI134228773
atp43
Rp44
F2144.32
tp45
a(g1
((lp46
I4199953
aI134224677
atp47
Rp48
F2186.572
tp49
a(g1
((lp50
I4212241
aI134224677
atp51
Rp52
F2197.42
tp53
a(g1
((lp54
I4204049
aI134236965
atp55
Rp56
F2205.068
tp57
a(g1
((lp58
I134224677
aI2131213
atp59
Rp60
F2206.528
tp61
a(g1
((lp62
I2102541
aI134236965
atp63
Rp64
F2206.756
tp65
a(g1
((lp66
I2114829
aI134228773
atp67
Rp68
F2225.204
tp69
a(g1
((lp70
I4204049
aI134224677
atp71
Rp72
F2227.22
tp73
a(g1
((lp74
I2131213
aI134236965
atp75
Rp76
F2244.448
tp77
a(g1
((lp78
I2114829
aI134236965
atp79
Rp80
F2244.536
tp81
a(g1
((lp82
I2102541
aI134224677
atp83
Rp84
F2254.144
tp85
a(g1
((lp86
I4212241
aI134228773
atp87
Rp88
F2256.428
tp89
a(g1
((lp90
I134224677
aI2114829
atp91
Rp92
F2264.804
tp93
a(g1
((lp94
I4212241
aI134236965
atp95
Rp96
F2272.86
tp97
a(g1
((lp98
I4199953
aI134228773
atp99
Rp100
F2295.816
tp101
a(g1
((lp102
I4199953
aI134236965
atp103
Rp104
F2323.832
tp105
a(g1
((lp106
I2102541
aI134228773
atp107
Rp108
F2398.908
tp109
a(g1
((lp110
I268471337
aI2131213
atp111
Rp112
F2412.704
tp113
a(g1
((lp114
I4199953
aI2131213
atp115
Rp116
F2429.664
tp117
a(g1
((lp118
I4204049
aI2131213
atp119
Rp120
F2458.012
tp121
a(g1
((lp122
I4212241
aI2114829
atp123
Rp124
F2525.568
tp125
a(g1
((lp126
I4212241
aI2131213
atp127
Rp128
F2548.228
tp129
a(g1
((lp130
I2131213
aI16812055
atp131
Rp132
F2551.208
tp133
a(g1
((lp134
I4199953
aI2114829
atp135
Rp136
F2569.164
tp137
a(g1
((lp138
I4204049
aI2102541
atp139
Rp140
F2590.676
tp141
a(g1
((lp142
I4199953
aI2102541
atp143
Rp144
F2595.552
tp145
a(g1
((lp146
I33589533
aI2131213
atp147
Rp148
F2641.476
tp149
a(g1
((lp150
I164099
aI2131213
atp151
Rp152
F2641.612
tp153
a(g1
((lp154
I4204049
aI2114829
atp155
Rp156
F2651.484
tp157
a(g1
((lp158
I8423187
aI16812055
atp159
Rp160
F2665.064
tp161
a(g1
((lp162
I2131213
aI67144223
atp163
Rp164
F2665.26
tp165
a(g1
((lp166
I268471337
aI268454953
atp167
Rp168
F2675.912
tp169
a(g1
((lp170
I2131213
aI295429
atp171
Rp172
F2677.828
tp173
a(g1
((lp174
I1082379
aI2131213
atp175
Rp176
F2678.536
tp177
a(g1
((lp178
I4212241
aI2102541
atp179
Rp180
F2680.872
tp181
a(g1
((lp182
I98306
aI2131213
atp183
Rp184
F2731.716
tp185
a(g1
((lp186
I8423187
aI2131213
atp187
Rp188
F2747.608
tp189
a(g1
((lp190
I268471337
aI268446761
atp191
Rp192
F2767.704
tp193
a(g1
((lp194
I268442665
aI268471337
atp195
Rp196
F2768.704
tp197
a(g1
((lp198
I268454953
aI268446761
atp199
Rp200
F2774.988
tp201
a(g1
((lp202
I268442665
aI268454953
atp203
Rp204
F2776.152
tp205
a(g1
((lp206
I268471337
aI134224677
atp207
Rp208
F2790.188
tp209
a(g1
((lp210
I33589533
aI134236965
atp211
Rp212
F2809.316
tp213
a(g1
((lp214
I33589533
aI134224677
atp215
Rp216
F2809.704
tp217
a(g1
((lp218
I2131213
aI557831
atp219
Rp220
F2813.952
tp221
a(g1
((lp222
I134228773
aI67119647
atp223
Rp224
F2823.172
tp225
a(g1
((lp226
I1082379
aI134228773
atp227
Rp228
F2824.592
tp229
a(g1
((lp230
I134228773
aI533255
atp231
Rp232
F2825.68
tp233
a(g1
((lp234
I1082379
aI134224677
atp235
Rp236
F2827.872
tp237
a(g1
((lp238
I1082379
aI134236965
atp239
Rp240
F2828.936
tp241
a(g1
((lp242
I8423187
aI134228773
atp243
Rp244
F2833.82
tp245
a(g1
((lp246
I134228773
aI557831
atp247
Rp248
F2835.508
tp249
a(g1
((lp250
I268471337
aI134228773
atp251
Rp252
F2841.608
tp253
a(g1
((lp254
I8423187
aI1082379
atp255
Rp256
F2843.092
tp257
a(g1
((lp258
I268442665
aI268446761
atp259
Rp260
F2867.28
tp261
a(g1
((lp262
I134236965
aI16812055
atp263
Rp264
F2870.476
tp265
a(g1
((lp266
I268471337
aI164099
atp267
Rp268
F2874.936
tp269
a(g1
((lp270
I1053707
aI134224677
atp271
Rp272
F2875.864
tp273
a(g1
((lp274
I134228773
aI16812055
atp275
Rp276
F2880.84
tp277
a(g1
((lp278
I268446761
aI134228773
atp279
Rp280
F2884.34
tp281
a(g1
((lp282
I1065995
aI134236965
atp283
Rp284
F2886.6
tp285
a(g1
((lp286
I1065995
aI134228773
atp287
Rp288
F2895.24
tp289
a(g1
((lp290
I134236965
aI557831
atp291
Rp292
F2900.696
tp293
a(g1
((lp294
I134236965
aI67144223
atp295
Rp296
F2902.544
tp297
a(g1
((lp298
I8423187
aI134224677
atp299
Rp300
F2906.668
tp301
a(g1
((lp302
I8394515
aI134228773
atp303
Rp304
F2906.992
tp305
a(g1
((lp306
I134236965
aI16795671
atp307
Rp308
F2907.096
tp309
a(g1
((lp310
I8398611
aI134228773
atp311
Rp312
F2907.432
tp313
a(g1
((lp314
I134228773
aI295429
atp315
Rp316
F2912.028
tp317
a(g1
((lp318
I268471337
aI134236965
atp319
Rp320
F2915.156
tp321
a(g1
((lp322
I164099
aI134236965
atp323
Rp324
F2915.728
tp325
a(g1
((lp326
I134236965
aI33560861
atp327
Rp328
F2918.14
tp329
a(g1
((lp330
I134224677
aI557831
atp331
Rp332
F2920.072
tp333
a(g1
((lp334
I1065995
aI134224677
atp335
Rp336
F2920.128
tp337
a(g1
((lp338
I8398611
aI134224677
atp339
Rp340
F2921.568
tp341
a(g1
((lp342
I33589533
aI134228773
atp343
Rp344
F2922.016
tp345
a(g1
((lp346
I1053707
aI134228773
atp347
Rp348
F2924.8
tp349
a(g1
((lp350
I134224677
aI67144223
atp351
Rp352
F2926.26
tp353
a(g1
((lp354
I8406803
aI134224677
atp355
Rp356
F2927.2
tp357
a(g1
((lp358
I1057803
aI134228773
atp359
Rp360
F2929.008
tp361
a(g1
((lp362
I134236965
aI16787479
atp363
Rp364
F2929.144
tp365
a(g1
((lp366
I134228773
aI16787479
atp367
Rp368
F2931.552
tp369
a(g1
((lp370
I1057803
aI134236965
atp371
Rp372
F2935.068
tp373
a(g1
((lp374
I139523
aI134228773
atp375
Rp376
F2938.6
tp377
a(g1
((lp378
I134236965
aI33573149
atp379
Rp380
F2946.424
tp381
a(g1
((lp382
I69634
aI134228773
atp383
Rp384
F2950.9
tp385
a(g1
((lp386
I134228773
aI541447
atp387
Rp388
F2951.828
tp389
a(g1
((lp390
I268446761
aI134236965
atp391
Rp392
F2952.252
tp393
a(g1
((lp394
I134224677
aI529159
atp395
Rp396
F2953.536
tp397
a(g1
((lp398
I134224677
aI16812055
atp399
Rp400
F2953.568
tp401
a(g1
((lp402
I134228773
aI67144223
atp403
Rp404
F2954.992
tp405
a(g1
((lp406
I8423187
aI557831
atp407
Rp408
F2956.276
tp409
a(g1
((lp410
I1082379
aI557831
atp411
Rp412
F2957.08
tp413
a(g1
((lp414
I98306
aI134236965
atp415
Rp416
F2958.548
tp417
a(g1
((lp418
I1053707
aI134236965
atp419
Rp420
F2959.86
tp421
a(g1
((lp422
I8423187
aI33589533
atp423
Rp424
F2966.212
tp425
a(g1
((lp426
I134236965
aI295429
atp427
Rp428
F2972.924
tp429
a(g1
((lp430
I268454953
aI134228773
atp431
Rp432
F2973.156
tp433
a(g1
((lp434
I8406803
aI134228773
atp435
Rp436
F2973.36
tp437
a(g1
((lp438
I134236965
aI67119647
atp439
Rp440
F2974.232
tp441
a(g1
((lp442
I8423187
aI134236965
atp443
Rp444
F2974.628
tp445
a(g1
((lp446
I81922
aI134228773
atp447
Rp448
F2974.664
tp449
a(g1
((lp450
I268442665
aI134228773
atp451
Rp452
F2977.92
tp453
a(g1
((lp454
I134224677
aI16795671
atp455
Rp456
F2979.908
tp457
a(g1
((lp458
I164099
aI134224677
atp459
Rp460
F2980.34
tp461
a(g1
((lp462
I134236965
aI67127839
atp463
Rp464
F2980.64
tp465
a(g1
((lp466
I98306
aI134224677
atp467
Rp468
F2982.68
tp469
a(g1
((lp470
I134236965
aI16783383
atp471
Rp472
F2987.5
tp473
a(g1
((lp474
I134228773
aI279045
atp475
Rp476
F2987.992
tp477
a(g1
((lp478
I33589533
aI16812055
atp479
Rp480
F2989.284
tp481
a(g1
((lp482
I134228773
aI266757
atp483
Rp484
F2990.416
tp485
a(g1
((lp486
I134224677
aI33573149
atp487
Rp488
F2990.804
tp489
a(g1
((lp490
I8406803
aI134236965
atp491
Rp492
F2991.632
tp493
a(g1
((lp494
I33564957
aI134236965
atp495
Rp496
F2992.664
tp497
a(g1
((lp498
I134224677
aI67115551
atp499
Rp500
F2993.076
tp501
a(g1
((lp502
I268454953
aI134224677
atp503
Rp504
F2993.656
tp505
a(g1
((lp506
I134224677
aI67127839
atp507
Rp508
F2994.38
tp509
a(g1
((lp510
I268442665
aI134224677
atp511
Rp512
F2994.488
tp513
a(g1
((lp514
I1057803
aI134224677
atp515
Rp516
F2994.744
tp517
a(g1
((lp518
I134236965
aI529159
atp519
Rp520
F2995.42
tp521
a(g1
((lp522
I134224677
aI541447
atp523
Rp524
F2997.272
tp525
a(g1
((lp526
I139523
aI134224677
atp527
Rp528
F2997.412
tp529
a(g1
((lp530
I134224677
aI16787479
atp531
Rp532
F2999.12
tp533
a(g1
((lp534
I134228773
aI529159
atp535
Rp536
F3000.5
tp537
a(g1
((lp538
I98306
aI134228773
atp539
Rp540
F3000.592
tp541
a(g1
((lp542
I134224677
aI266757
atp543
Rp544
F3000.876
tp545
a(g1
((lp546
I67127839
aI67144223
atp547
Rp548
F3001.2
tp549
a(g1
((lp550
I73730
aI134224677
atp551
Rp552
F3004.688
tp553
a(g1
((lp554
I134224677
aI295429
atp555
Rp556
F3005.608
tp557
a(g1
((lp558
I134224677
aI67119647
atp559
Rp560
F3005.668
tp561
a(g1
((lp562
I270853
aI134236965
atp563
Rp564
F3006.364
tp565
a(g1
((lp566
I268446761
aI134224677
atp567
Rp568
F3006.612
tp569
a(g1
((lp570
I134236965
aI279045
atp571
Rp572
F3008.836
tp573
a(g1
((lp574
I270853
aI134228773
atp575
Rp576
F3009.52
tp577
a(g1
((lp578
I134228773
aI16783383
atp579
Rp580
F3010.956
tp581
a(g1
((lp582
I134228773
aI67127839
atp583
Rp584
F3012.016
tp585
a(g1
((lp586
I134236965
aI67115551
atp587
Rp588
F3013.752
tp589
a(g1
((lp590
I268471337
aI67144223
atp591
Rp592
F3014.876
tp593
a(g1
((lp594
I134228773
aI67115551
atp595
Rp596
F3015.668
tp597
a(g1
((lp598
I134236965
aI533255
atp599
Rp600
F3017.232
tp601
a(g1
((lp602
I67119647
aI67144223
atp603
Rp604
F3020.904
tp605
a(g1
((lp606
I268442665
aI134236965
atp607
Rp608
F3023.62
tp609
a(g1
((lp610
I8398611
aI134236965
atp611
Rp612
F3023.72
tp613
a(g1
((lp614
I164099
aI134228773
atp615
Rp616
F3025.844
tp617
a(g1
((lp618
I33564957
aI134228773
atp619
Rp620
F3026.172
tp621
a(g1
((lp622
I33564957
aI134224677
atp623
Rp624
F3026.896
tp625
a(g1
((lp626
I8394515
aI134236965
atp627
Rp628
F3028.484
tp629
a(g1
((lp630
I268454953
aI134236965
atp631
Rp632
F3031.228
tp633
a(g1
((lp634
I134224677
aI16783383
atp635
Rp636
F3031.96
tp637
a(g1
((lp638
I268471337
aI16812055
atp639
Rp640
F3033.364
tp641
a(g1
((lp642
I134228773
aI33573149
atp643
Rp644
F3036.908
tp645
a(g1
((lp646
I8394515
aI134224677
atp647
Rp648
F3037.416
tp649
a(g1
((lp650
I147715
aI134224677
atp651
Rp652
F3037.6
tp653
a(g1
((lp654
I69634
aI134224677
atp655
Rp656
F3038.328
tp657
a(g1
((lp658
I134224677
aI279045
atp659
Rp660
F3040.496
tp661
a(g1
((lp662
I134236965
aI266757
atp663
Rp664
F3044.476
tp665
a(g1
((lp666
I135427
aI134236965
atp667
Rp668
F3044.876
tp669
a(g1
((lp670
I134224677
aI33560861
atp671
Rp672
F3045.476
tp673
a(g1
((lp674
I134224677
aI533255
atp675
Rp676
F3051.824
tp677
a(g1
((lp678
I73730
aI134228773
atp679
Rp680
F3057.532
tp681
a(g1
((lp682
I147715
aI134228773
atp683
Rp684
F3062.288
tp685
a(g1
((lp686
I81922
aI134224677
atp687
Rp688
F3071.412
tp689
a(g1
((lp690
I134228773
aI16795671
atp691
Rp692
F3071.716
tp693
a(g1
((lp694
I134228773
aI33560861
atp695
Rp696
F3078.78
tp697
a(g1
((lp698
I135427
aI134228773
atp699
Rp700
F3082.068
tp701
a(g1
((lp702
I73730
aI134236965
atp703
Rp704
F3082.776
tp705
a(g1
((lp706
I33564957
aI33589533
atp707
Rp708
F3089.948
tp709
a(g1
((lp710
I147715
aI134236965
atp711
Rp712
F3094.36
tp713
a(g1
((lp714
I139523
aI134236965
atp715
Rp716
F3095.704
tp717
a(g1
((lp718
I135427
aI134224677
atp719
Rp720
F3096.276
tp721
a(g1
((lp722
I134236965
aI541447
atp723
Rp724
F3100.012
tp725
a(g1
((lp726
I69634
aI134236965
atp727
Rp728
F3102.496
tp729
a(g1
((lp730
I268471337
aI33589533
atp731
Rp732
F3104.864
tp733
a(g1
((lp734
I67119647
aI67127839
atp735
Rp736
F3111.3
tp737
a(g1
((lp738
I270853
aI134224677
atp739
Rp740
F3116.728
tp741
a(g1
((lp742
I67115551
aI67144223
atp743
Rp744
F3121.108
tp745
a(g1
((lp746
I268471337
aI8423187
atp747
Rp748
F3125.012
tp749
a(g1
((lp750
I1082379
aI16812055
atp751
Rp752
F3142.828
tp753
a(g1
((lp754
I81922
aI134236965
atp755
Rp756
F3155.152
tp757
a(g1
((lp758
I33589533
aI33573149
atp759
Rp760
F3160.26
tp761
a(g1
((lp762
I1082379
aI67144223
atp763
Rp764
F3160.38
tp765
a(g1
((lp766
I33589533
aI33560861
atp767
Rp768
F3161.412
tp769
a(g1
((lp770
I67115551
aI67127839
atp771
Rp772
F3176.94
tp773
a(g1
((lp774
I33564957
aI33573149
atp775
Rp776
F3190.064
tp777
a(g1
((lp778
I8423187
aI67144223
atp779
Rp780
F3197.348
tp781
a(g1
((lp782
I268471337
aI295429
atp783
Rp784
F3198.012
tp785
a(g1
((lp786
I16783383
aI16812055
atp787
Rp788
F3214.224
tp789
a(g1
((lp790
I67119647
aI67115551
atp791
Rp792
F3235.204
tp793
a(g1
((lp794
I33564957
aI33560861
atp795
Rp796
F3254.34
tp797
a(g1
((lp798
I8406803
aI8423187
atp799
Rp800
F3255.58
tp801
a(g1
((lp802
I1082379
aI295429
atp803
Rp804
F3273.992
tp805
a(g1
((lp806
I16795671
aI16812055
atp807
Rp808
F3282.964
tp809
a(g1
((lp810
I295429
aI557831
atp811
Rp812
F3287.716
tp813
a(g1
((lp814
I16787479
aI16812055
atp815
Rp816
F3297.796
tp817
a(g1
((lp818
I268471337
aI1082379
atp819
Rp820
F3298.176
tp821
a(g1
((lp822
I268471337
aI557831
atp823
Rp824
F3299.56
tp825
a(g1
((lp826
I268471337
aI98306
atp827
Rp828
F3317.244
tp829
a(g1
((lp830
I33560861
aI33573149
atp831
Rp832
F3331.248
tp833
a(g1
((lp834
I33589533
aI295429
atp835
Rp836
F3334.4
tp837
a(g1
((lp838
I16787479
aI16783383
atp839
Rp840
F3356.52
tp841
a(g1
((lp842
I4204049
aI8423187
atp843
Rp844
F3366.404
tp845
a(g1
((lp846
I8423187
aI8398611
atp847
Rp848
F3370.144
tp849
a(g1
((lp850
I98306
aI8423187
atp851
Rp852
F3382.084
tp853
a(g1
((lp854
I16783383
aI16795671
atp855
Rp856
F3391.208
tp857
a(g1
((lp858
I4204049
aI33589533
atp859
Rp860
F3417.608
tp861
a(g1
((lp862
I16787479
aI16795671
atp863
Rp864
F3418.512
tp865
a(g1
((lp866
I98306
aI67144223
atp867
Rp868
F3419.332
tp869
a(g1
((lp870
I4199953
aI557831
atp871
Rp872
F3429.88
tp873
a(g1
((lp874
I4212241
aI67144223
atp875
Rp876
F3430.024
tp877
a(g1
((lp878
I1082379
aI33589533
atp879
Rp880
F3430.728
tp881
a(g1
((lp882
I4199953
aI16812055
atp883
Rp884
F3430.756
tp885
a(g1
((lp886
I16812055
aI67144223
atp887
Rp888
F3438.904
tp889
a(g1
((lp890
I4204049
aI8398611
atp891
Rp892
F3438.904
tp893
a(g1
((lp894
I4199953
aI1082379
atp895
Rp896
F3441.936
tp897
a(g1
((lp898
I557831
aI67144223
atp899
Rp900
F3443.656
tp901
a(g1
((lp902
I4212241
aI295429
atp903
Rp904
F3444.888
tp905
a(g1
((lp906
I295429
aI67144223
atp907
Rp908
F3444.944
tp909
a(g1
((lp910
I268471337
aI4199953
atp911
Rp912
F3447.824
tp913
a(g1
((lp914
I33589533
aI557831
atp915
Rp916
F3449.472
tp917
a(g1
((lp918
I4204049
aI295429
atp919
Rp920
F3451.916
tp921
a(g1
((lp922
I4204049
aI1065995
atp923
Rp924
F3467.564
tp925
a(g1
((lp926
I33589533
aI67144223
atp927
Rp928
F3474.204
tp929
a(g1
((lp930
I8406803
aI8398611
atp931
Rp932
F3474.336
tp933
a(g1
((lp934
I4204049
aI1082379
atp935
Rp936
F3475.18
tp937
a(g1
((lp938
I1053707
aI2131213
atp939
Rp940
F3475.74
tp941
a(g1
((lp942
I8394515
aI8423187
atp943
Rp944
F3481.444
tp945
a(g1
((lp946
I8423187
aI2102541
atp947
Rp948
F3487.04
tp949
a(g1
((lp950
I4212241
aI1065995
atp951
Rp952
F3493.192
tp953
a(g1
((lp954
I4212241
aI8423187
atp955
Rp956
F3494.956
tp957
a(g1
((lp958
I1082379
aI164099
atp959
Rp960
F3500.728
tp961
a(g1
((lp962
I4212241
aI16812055
atp963
Rp964
F3502.372
tp965
a(g1
((lp966
I4199953
aI8394515
atp967
Rp968
F3505.112
tp969
a(g1
((lp970
I2131213
aI33560861
atp971
Rp972
F3506.824
tp973
a(g1
((lp974
I4212241
aI1082379
atp975
Rp976
F3515.96
tp977
a(g1
((lp978
I4204049
aI67119647
atp979
Rp980
F3516.392
tp981
a(g1
((lp982
I4204049
aI533255
atp983
Rp984
F3525.592
tp985
a(g1
((lp986
I8394515
aI8406803
atp987
Rp988
F3525.844
tp989
a(g1
((lp990
I4212241
aI1057803
atp991
Rp992
F3529.412
tp993
a(g1
((lp994
I8398611
aI16812055
atp995
Rp996
F3530.748
tp997
a(g1
((lp998
I4199953
aI33589533
atp999
Rp1000
F3533.864
tp1001
a(g1
((lp1002
I268471337
aI4204049
atp1003
Rp1004
F3534.048
tp1005
a(g1
((lp1006
I1057803
aI2131213
atp1007
Rp1008
F3534.424
tp1009
a(g1
((lp1010
I268471337
aI2114829
atp1011
Rp1012
F3534.736
tp1013
a(g1
((lp1014
I4212241
aI98306
atp1015
Rp1016
F3536.712
tp1017
a(g1
((lp1018
I1057803
aI2114829
atp1019
Rp1020
F3537.736
tp1021
a(g1
((lp1022
I2131213
aI16783383
atp1023
Rp1024
F3537.936
tp1025
a(g1
((lp1026
I4204049
aI16812055
atp1027
Rp1028
F3540.288
tp1029
a(g1
((lp1030
I8423187
aI16795671
atp1031
Rp1032
F3546.164
tp1033
a(g1
((lp1034
I268446761
aI2131213
atp1035
Rp1036
F3546.188
tp1037
a(g1
((lp1038
I4212241
aI33589533
atp1039
Rp1040
F3547.956
tp1041
a(g1
((lp1042
I8406803
aI2131213
atp1043
Rp1044
F3551.188
tp1045
a(g1
((lp1046
I8394515
aI8398611
atp1047
Rp1048
F3554.924
tp1049
a(g1
((lp1050
I4199953
aI295429
atp1051
Rp1052
F3558.404
tp1053
a(g1
((lp1054
I164099
aI16812055
atp1055
Rp1056
F3559.124
tp1057
a(g1
((lp1058
I4204049
aI16787479
atp1059
Rp1060
F3560.604
tp1061
a(g1
((lp1062
I4204049
aI1057803
atp1063
Rp1064
F3562.824
tp1065
a(g1
((lp1066
I98306
aI16812055
atp1067
Rp1068
F3565.872
tp1069
a(g1
((lp1070
I4199953
aI16795671
atp1071
Rp1072
F3566.284
tp1073
a(g1
((lp1074
I164099
aI67144223
atp1075
Rp1076
F3567.048
tp1077
a(g1
((lp1078
I4204049
aI1053707
atp1079
Rp1080
F3573.688
tp1081
a(g1
((lp1082
I2131213
aI33573149
atp1083
Rp1084
F3574.04
tp1085
a(g1
((lp1086
I4204049
aI33564957
atp1087
Rp1088
F3574.092
tp1089
a(g1
((lp1090
I2102541
aI16812055
atp1091
Rp1092
F3574.416
tp1093
a(g1
((lp1094
I4204049
aI164099
atp1095
Rp1096
F3574.816
tp1097
a(g1
((lp1098
I4212241
aI268446761
atp1099
Rp1100
F3576.048
tp1101
a(g1
((lp1102
I4212241
aI33560861
atp1103
Rp1104
F3576.8
tp1105
a(g1
((lp1106
I4212241
aI8398611
atp1107
Rp1108
F3577.02
tp1109
a(g1
((lp1110
I98306
aI1082379
atp1111
Rp1112
F3578.156
tp1113
a(g1
((lp1114
I4212241
aI67115551
atp1115
Rp1116
F3578.328
tp1117
a(g1
((lp1118
I4212241
aI164099
atp1119
Rp1120
F3580.244
tp1121
a(g1
((lp1122
I2131213
aI67115551
atp1123
Rp1124
F3581.568
tp1125
a(g1
((lp1126
I4212241
aI1053707
atp1127
Rp1128
F3583.28
tp1129
a(g1
((lp1130
I4204049
aI67144223
atp1131
Rp1132
F3586.076
tp1133
a(g1
((lp1134
I4204049
aI8406803
atp1135
Rp1136
F3589.292
tp1137
a(g1
((lp1138
I4212241
aI279045
atp1139
Rp1140
F3591.016
tp1141
a(g1
((lp1142
I4212241
aI268471337
atp1143
Rp1144
F3592.952
tp1145
a(g1
((lp1146
I139523
aI2131213
atp1147
Rp1148
F3595.536
tp1149
a(g1
((lp1150
I4204049
aI268446761
atp1151
Rp1152
F3595.56
tp1153
a(g1
((lp1154
I2131213
aI67127839
atp1155
Rp1156
F3596.076
tp1157
a(g1
((lp1158
I4212241
aI557831
atp1159
Rp1160
F3597.528
tp1161
a(g1
((lp1162
I4199953
aI8398611
atp1163
Rp1164
F3598.076
tp1165
a(g1
((lp1166
I4199953
aI8406803
atp1167
Rp1168
F3599.768
tp1169
a(g1
((lp1170
I8406803
aI16812055
atp1171
Rp1172
F3606.744
tp1173
a(g1
((lp1174
I4204049
aI266757
atp1175
Rp1176
F3607.416
tp1177
a(g1
((lp1178
I268442665
aI4212241
atp1179
Rp1180
F3607.444
tp1181
a(g1
((lp1182
I4199953
aI8423187
atp1183
Rp1184
F3607.632
tp1185
a(g1
((lp1186
I8423187
aI295429
atp1187
Rp1188
F3607.84
tp1189
a(g1
((lp1190
I4199953
aI1053707
atp1191
Rp1192
F3608.104
tp1193
a(g1
((lp1194
I1065995
aI2131213
atp1195
Rp1196
F3610.016
tp1197
a(g1
((lp1198
I4199953
aI1065995
atp1199
Rp1200
F3617.06
tp1201
a(g1
((lp1202
I33589533
aI2102541
atp1203
Rp1204
F3617.604
tp1205
a(g1
((lp1206
I2131213
aI279045
atp1207
Rp1208
F3617.64
tp1209
a(g1
((lp1210
I8423187
aI164099
atp1211
Rp1212
F3618.44
tp1213
a(g1
((lp1214
I8398611
aI16787479
atp1215
Rp1216
F3620.34
tp1217
a(g1
((lp1218
I2131213
aI16795671
atp1219
Rp1220
F3621.268
tp1221
a(g1
((lp1222
I4204049
aI557831
atp1223
Rp1224
F3621.944
tp1225
a(g1
((lp1226
I8423187
aI16787479
atp1227
Rp1228
F3622.66
tp1229
a(g1
((lp1230
I4199953
aI67127839
atp1231
Rp1232
F3623.904
tp1233
a(g1
((lp1234
I4199953
aI268446761
atp1235
Rp1236
F3627.448
tp1237
a(g1
((lp1238
I4204049
aI16795671
atp1239
Rp1240
F3628.164
tp1241
a(g1
((lp1242
I4199953
aI67144223
atp1243
Rp1244
F3630.252
tp1245
a(g1
((lp1246
I4204049
aI73730
atp1247
Rp1248
F3630.328
tp1249
a(g1
((lp1250
I2102541
aI67144223
atp1251
Rp1252
F3631.848
tp1253
a(g1
((lp1254
I4199953
aI1057803
atp1255
Rp1256
F3632.304
tp1257
a(g1
((lp1258
I4204049
aI8394515
atp1259
Rp1260
F3633.712
tp1261
a(g1
((lp1262
I4199953
aI33573149
atp1263
Rp1264
F3635.22
tp1265
a(g1
((lp1266
I1065995
aI1082379
atp1267
Rp1268
F3635.736
tp1269
a(g1
((lp1270
I8398611
aI16795671
atp1271
Rp1272
F3636.632
tp1273
a(g1
((lp1274
I8394515
aI2131213
atp1275
Rp1276
F3642.436
tp1277
a(g1
((lp1278
I4212241
aI16783383
atp1279
Rp1280
F3646.588
tp1281
a(g1
((lp1282
I164099
aI2102541
atp1283
Rp1284
F3647.108
tp1285
a(g1
((lp1286
I8406803
aI2102541
atp1287
Rp1288
F3647.208
tp1289
a(g1
((lp1290
I2102541
aI295429
atp1291
Rp1292
F3647.456
tp1293
a(g1
((lp1294
I164099
aI33589533
atp1295
Rp1296
F3648.132
tp1297
a(g1
((lp1298
I4199953
aI266757
atp1299
Rp1300
F3648.32
tp1301
a(g1
((lp1302
I8406803
aI2114829
atp1303
Rp1304
F3649.0
tp1305
a(g1
((lp1306
I4204049
aI139523
atp1307
Rp1308
F3652.176
tp1309
a(g1
((lp1310
I4204049
aI69634
atp1311
Rp1312
F3653.74
tp1313
a(g1
((lp1314
I4199953
aI67115551
atp1315
Rp1316
F3654.776
tp1317
a(g1
((lp1318
I4204049
aI33560861
atp1319
Rp1320
F3656.252
tp1321
a(g1
((lp1322
I268442665
aI4199953
atp1323
Rp1324
F3656.656
tp1325
a(g1
((lp1326
I8423187
aI2114829
atp1327
Rp1328
F3657.072
tp1329
a(g1
((lp1330
I4199953
aI33564957
atp1331
Rp1332
F3657.22
tp1333
a(g1
((lp1334
I4204049
aI270853
atp1335
Rp1336
F3658.092
tp1337
a(g1
((lp1338
I8398611
aI2114829
atp1339
Rp1340
F3658.132
tp1341
a(g1
((lp1342
I4212241
aI533255
atp1343
Rp1344
F3658.46
tp1345
a(g1
((lp1346
I4212241
aI33564957
atp1347
Rp1348
F3658.612
tp1349
a(g1
((lp1350
I2114829
aI16812055
atp1351
Rp1352
F3658.864
tp1353
a(g1
((lp1354
I4199953
aI16787479
atp1355
Rp1356
F3659.452
tp1357
a(g1
((lp1358
I268454953
aI4204049
atp1359
Rp1360
F3662.288
tp1361
a(g1
((lp1362
I98306
aI557831
atp1363
Rp1364
F3663.312
tp1365
a(g1
((lp1366
I1053707
aI2114829
atp1367
Rp1368
F3663.348
tp1369
a(g1
((lp1370
I4212241
aI541447
atp1371
Rp1372
F3663.36
tp1373
a(g1
((lp1374
I4204049
aI98306
atp1375
Rp1376
F3664.636
tp1377
a(g1
((lp1378
I1065995
aI2102541
atp1379
Rp1380
F3665.304
tp1381
a(g1
((lp1382
I4199953
aI98306
atp1383
Rp1384
F3666.124
tp1385
a(g1
((lp1386
I2114829
aI533255
atp1387
Rp1388
F3666.312
tp1389
a(g1
((lp1390
I4199953
aI164099
atp1391
Rp1392
F3667.428
tp1393
a(g1
((lp1394
I2131213
aI541447
atp1395
Rp1396
F3667.628
tp1397
a(g1
((lp1398
I98306
aI2114829
atp1399
Rp1400
F3668.748
tp1401
a(g1
((lp1402
I268442665
aI2131213
atp1403
Rp1404
F3669.708
tp1405
a(g1
((lp1406
I1082379
aI1057803
atp1407
Rp1408
F3670.728
tp1409
a(g1
((lp1410
I2102541
aI533255
atp1411
Rp1412
F3672.296
tp1413
a(g1
((lp1414
I4212241
aI16787479
atp1415
Rp1416
F3673.36
tp1417
a(g1
((lp1418
I164099
aI295429
atp1419
Rp1420
F3673.592
tp1421
a(g1
((lp1422
I4212241
aI147715
atp1423
Rp1424
F3673.628
tp1425
a(g1
((lp1426
I4199953
aI533255
atp1427
Rp1428
F3675.836
tp1429
a(g1
((lp1430
I2131213
aI533255
atp1431
Rp1432
F3676.184
tp1433
a(g1
((lp1434
I4199953
aI270853
atp1435
Rp1436
F3678.252
tp1437
a(g1
((lp1438
I4204049
aI529159
atp1439
Rp1440
F3678.98
tp1441
a(g1
((lp1442
I98306
aI2102541
atp1443
Rp1444
F3679.392
tp1445
a(g1
((lp1446
I4212241
aI67127839
atp1447
Rp1448
F3683.048
tp1449
a(g1
((lp1450
I1053707
aI1082379
atp1451
Rp1452
F3684.048
tp1453
a(g1
((lp1454
I33589533
aI2114829
atp1455
Rp1456
F3685.312
tp1457
a(g1
((lp1458
I4204049
aI279045
atp1459
Rp1460
F3685.556
tp1461
a(g1
((lp1462
I4204049
aI16783383
atp1463
Rp1464
F3685.608
tp1465
a(g1
((lp1466
I2131213
aI16787479
atp1467
Rp1468
F3686.572
tp1469
a(g1
((lp1470
I4212241
aI8394515
atp1471
Rp1472
F3687.176
tp1473
a(g1
((lp1474
I4199953
aI81922
atp1475
Rp1476
F3688.572
tp1477
a(g1
((lp1478
I4212241
aI8406803
atp1479
Rp1480
F3689.832
tp1481
a(g1
((lp1482
I4199953
aI529159
atp1483
Rp1484
F3691.2
tp1485
a(g1
((lp1486
I2102541
aI33573149
atp1487
Rp1488
F3692.724
tp1489
a(g1
((lp1490
I4199953
aI33560861
atp1491
Rp1492
F3693.348
tp1493
a(g1
((lp1494
I33564957
aI2131213
atp1495
Rp1496
F3694.396
tp1497
a(g1
((lp1498
I135427
aI2131213
atp1499
Rp1500
F3694.564
tp1501
a(g1
((lp1502
I268442665
aI4204049
atp1503
Rp1504
F3695.876
tp1505
a(g1
((lp1506
I164099
aI2114829
atp1507
Rp1508
F3696.46
tp1509
a(g1
((lp1510
I4212241
aI270853
atp1511
Rp1512
F3696.652
tp1513
a(g1
((lp1514
I1053707
aI557831
atp1515
Rp1516
F3696.664
tp1517
a(g1
((lp1518
I4212241
aI67119647
atp1519
Rp1520
F3701.232
tp1521
a(g1
((lp1522
I4199953
aI67119647
atp1523
Rp1524
F3701.316
tp1525
a(g1
((lp1526
I268471337
aI2102541
atp1527
Rp1528
F3702.272
tp1529
a(g1
((lp1530
I4204049
aI541447
atp1531
Rp1532
F3704.44
tp1533
a(g1
((lp1534
I2114829
aI557831
atp1535
Rp1536
F3704.604
tp1537
a(g1
((lp1538
I1082379
aI8398611
atp1539
Rp1540
F3706.04
tp1541
a(g1
((lp1542
I4212241
aI33573149
atp1543
Rp1544
F3706.364
tp1545
a(g1
((lp1546
I4212241
aI135427
atp1547
Rp1548
F3708.444
tp1549
a(g1
((lp1550
I1065995
aI2114829
atp1551
Rp1552
F3712.32
tp1553
a(g1
((lp1554
I8406803
aI1082379
atp1555
Rp1556
F3713.28
tp1557
a(g1
((lp1558
I4204049
aI67127839
atp1559
Rp1560
F3714.596
tp1561
a(g1
((lp1562
I8423187
aI16783383
atp1563
Rp1564
F3715.084
tp1565
a(g1
((lp1566
I4204049
aI67115551
atp1567
Rp1568
F3716.472
tp1569
a(g1
((lp1570
I2114829
aI33560861
atp1571
Rp1572
F3718.916
tp1573
a(g1
((lp1574
I2131213
aI529159
atp1575
Rp1576
F3719.296
tp1577
a(g1
((lp1578
I73730
aI2131213
atp1579
Rp1580
F3719.456
tp1581
a(g1
((lp1582
I81922
aI2131213
atp1583
Rp1584
F3720.856
tp1585
a(g1
((lp1586
I147715
aI2131213
atp1587
Rp1588
F3721.936
tp1589
a(g1
((lp1590
I4199953
aI69634
atp1591
Rp1592
F3722.004
tp1593
a(g1
((lp1594
I4199953
aI16783383
atp1595
Rp1596
F3723.636
tp1597
a(g1
((lp1598
I557831
aI16812055
atp1599
Rp1600
F3728.784
tp1601
a(g1
((lp1602
I1065995
aI1057803
atp1603
Rp1604
F3729.308
tp1605
a(g1
((lp1606
I4199953
aI135427
atp1607
Rp1608
F3731.16
tp1609
a(g1
((lp1610
I268454953
aI4199953
atp1611
Rp1612
F3733.2
tp1613
a(g1
((lp1614
I8394515
aI2114829
atp1615
Rp1616
F3733.536
tp1617
a(g1
((lp1618
I1057803
aI2102541
atp1619
Rp1620
F3734.284
tp1621
a(g1
((lp1622
I4212241
aI16795671
atp1623
Rp1624
F3734.508
tp1625
a(g1
((lp1626
I8398611
aI2131213
atp1627
Rp1628
F3734.724
tp1629
a(g1
((lp1630
I4204049
aI33573149
atp1631
Rp1632
F3736.832
tp1633
a(g1
((lp1634
I270853
aI2102541
atp1635
Rp1636
F3740.964
tp1637
a(g1
((lp1638
I4212241
aI266757
atp1639
Rp1640
F3741.08
tp1641
a(g1
((lp1642
I4212241
aI81922
atp1643
Rp1644
F3741.544
tp1645
a(g1
((lp1646
I268454953
aI2131213
atp1647
Rp1648
F3742.64
tp1649
a(g1
((lp1650
I4212241
aI268454953
atp1651
Rp1652
F3742.736
tp1653
a(g1
((lp1654
I2102541
aI557831
atp1655
Rp1656
F3744.032
tp1657
a(g1
((lp1658
I1082379
aI2114829
atp1659
Rp1660
F3744.62
tp1661
a(g1
((lp1662
I2102541
aI67127839
atp1663
Rp1664
F3744.92
tp1665
a(g1
((lp1666
I4204049
aI135427
atp1667
Rp1668
F3747.068
tp1669
a(g1
((lp1670
I4199953
aI279045
atp1671
Rp1672
F3747.952
tp1673
a(g1
((lp1674
I4212241
aI139523
atp1675
Rp1676
F3751.044
tp1677
a(g1
((lp1678
I2114829
aI67115551
atp1679
Rp1680
F3751.208
tp1681
a(g1
((lp1682
I4212241
aI69634
atp1683
Rp1684
F3753.108
tp1685
a(g1
((lp1686
I268446761
aI2102541
atp1687
Rp1688
F3753.396
tp1689
a(g1
((lp1690
I2114829
aI33573149
atp1691
Rp1692
F3756.896
tp1693
a(g1
((lp1694
I2102541
aI16787479
atp1695
Rp1696
F3757.66
tp1697
a(g1
((lp1698
I8398611
aI16783383
atp1699
Rp1700
F3758.124
tp1701
a(g1
((lp1702
I4212241
aI529159
atp1703
Rp1704
F3763.592
tp1705
a(g1
((lp1706
I268454953
aI2102541
atp1707
Rp1708
F3764.632
tp1709
a(g1
((lp1710
I8423187
aI1053707
atp1711
Rp1712
F3764.864
tp1713
a(g1
((lp1714
I2114829
aI67127839
atp1715
Rp1716
F3768.592
tp1717
a(g1
((lp1718
I164099
aI557831
atp1719
Rp1720
F3771.0
tp1721
a(g1
((lp1722
I4212241
aI73730
atp1723
Rp1724
F3771.06
tp1725
a(g1
((lp1726
I2102541
aI529159
atp1727
Rp1728
F3771.728
tp1729
a(g1
((lp1730
I2131213
aI266757
atp1731
Rp1732
F3772.256
tp1733
a(g1
((lp1734
I1082379
aI2102541
atp1735
Rp1736
F3774.384
tp1737
a(g1
((lp1738
I8394515
aI16812055
atp1739
Rp1740
F3774.612
tp1741
a(g1
((lp1742
I2131213
aI67119647
atp1743
Rp1744
F3776.944
tp1745
a(g1
((lp1746
I4199953
aI541447
atp1747
Rp1748
F3778.948
tp1749
a(g1
((lp1750
I4199953
aI147715
atp1751
Rp1752
F3780.516
tp1753
a(g1
((lp1754
I2114829
aI67144223
atp1755
Rp1756
F3781.496
tp1757
a(g1
((lp1758
I2114829
aI295429
atp1759
Rp1760
F3781.552
tp1761
a(g1
((lp1762
I33564957
aI2102541
atp1763
Rp1764
F3781.864
tp1765
a(g1
((lp1766
I295429
aI16812055
atp1767
Rp1768
F3782.24
tp1769
a(g1
((lp1770
I270853
aI2131213
atp1771
Rp1772
F3782.568
tp1773
a(g1
((lp1774
I8394515
aI16795671
atp1775
Rp1776
F3783.056
tp1777
a(g1
((lp1778
I4199953
aI139523
atp1779
Rp1780
F3784.136
tp1781
a(g1
((lp1782
I69634
aI2131213
atp1783
Rp1784
F3788.172
tp1785
a(g1
((lp1786
I1053707
aI8398611
atp1787
Rp1788
F3789.836
tp1789
a(g1
((lp1790
I2114829
aI266757
atp1791
Rp1792
F3790.124
tp1793
a(g1
((lp1794
I147715
aI2114829
atp1795
Rp1796
F3791.284
tp1797
a(g1
((lp1798
I1065995
aI1053707
atp1799
Rp1800
F3793.624
tp1801
a(g1
((lp1802
I2102541
aI67119647
atp1803
Rp1804
F3794.396
tp1805
a(g1
((lp1806
I8406803
aI16795671
atp1807
Rp1808
F3794.784
tp1809
a(g1
((lp1810
I2114829
aI16783383
atp1811
Rp1812
F3796.788
tp1813
a(g1
((lp1814
I2102541
aI67115551
atp1815
Rp1816
F3797.148
tp1817
a(g1
((lp1818
I4204049
aI147715
atp1819
Rp1820
F3802.18
tp1821
a(g1
((lp1822
I4199953
aI73730
atp1823
Rp1824
F3805.072
tp1825
a(g1
((lp1826
I135427
aI2114829
atp1827
Rp1828
F3806.204
tp1829
a(g1
((lp1830
I2102541
aI279045
atp1831
Rp1832
F3808.876
tp1833
a(g1
((lp1834
I8398611
aI2102541
atp1835
Rp1836
F3809.844
tp1837
a(g1
((lp1838
I2102541
aI16795671
atp1839
Rp1840
F3813.676
tp1841
a(g1
((lp1842
I2102541
aI541447
atp1843
Rp1844
F3815.128
tp1845
a(g1
((lp1846
I2102541
aI16783383
atp1847
Rp1848
F3816.392
tp1849
a(g1
((lp1850
I1053707
aI533255
atp1851
Rp1852
F3817.016
tp1853
a(g1
((lp1854
I557831
aI541447
atp1855
Rp1856
F3817.328
tp1857
a(g1
((lp1858
I98306
aI295429
atp1859
Rp1860
F3819.02
tp1861
a(g1
((lp1862
I1053707
aI1057803
atp1863
Rp1864
F3823.216
tp1865
a(g1
((lp1866
I268442665
aI2102541
atp1867
Rp1868
F3825.552
tp1869
a(g1
((lp1870
I557831
aI529159
atp1871
Rp1872
F3825.564
tp1873
a(g1
((lp1874
I8394515
aI2102541
atp1875
Rp1876
F3825.768
tp1877
a(g1
((lp1878
I2114829
aI529159
atp1879
Rp1880
F3826.368
tp1881
a(g1
((lp1882
I1053707
aI2102541
atp1883
Rp1884
F3829.34
tp1885
a(g1
((lp1886
I1082379
aI541447
atp1887
Rp1888
F3834.38
tp1889
a(g1
((lp1890
I8406803
aI16787479
atp1891
Rp1892
F3835.164
tp1893
a(g1
((lp1894
I8406803
aI16783383
atp1895
Rp1896
F3840.38
tp1897
a(g1
((lp1898
I1065995
aI8406803
atp1899
Rp1900
F3843.288
tp1901
a(g1
((lp1902
I147715
aI2102541
atp1903
Rp1904
F3847.132
tp1905
a(g1
((lp1906
I1057803
aI557831
atp1907
Rp1908
F3847.78
tp1909
a(g1
((lp1910
I2102541
aI33560861
atp1911
Rp1912
F3848.828
tp1913
a(g1
((lp1914
I69634
aI2114829
atp1915
Rp1916
F3849.468
tp1917
a(g1
((lp1918
I139523
aI2102541
atp1919
Rp1920
F3853.584
tp1921
a(g1
((lp1922
I2114829
aI16795671
atp1923
Rp1924
F3853.652
tp1925
a(g1
((lp1926
I270853
aI295429
atp1927
Rp1928
F3853.796
tp1929
a(g1
((lp1930
I2114829
aI16787479
atp1931
Rp1932
F3860.18
tp1933
a(g1
((lp1934
I4204049
aI81922
atp1935
Rp1936
F3864.128
tp1937
a(g1
((lp1938
I268442665
aI2114829
atp1939
Rp1940
F3869.04
tp1941
a(g1
((lp1942
I2114829
aI279045
atp1943
Rp1944
F3872.524
tp1945
a(g1
((lp1946
I2114829
aI541447
atp1947
Rp1948
F3873.264
tp1949
a(g1
((lp1950
I268446761
aI2114829
atp1951
Rp1952
F3876.632
tp1953
a(g1
((lp1954
I270853
aI2114829
atp1955
Rp1956
F3877.592
tp1957
a(g1
((lp1958
I268454953
aI2114829
atp1959
Rp1960
F3881.668
tp1961
a(g1
((lp1962
I139523
aI2114829
atp1963
Rp1964
F3882.36
tp1965
a(g1
((lp1966
I69634
aI2102541
atp1967
Rp1968
F3885.336
tp1969
a(g1
((lp1970
I98306
aI33589533
atp1971
Rp1972
F3888.24
tp1973
a(g1
((lp1974
I81922
aI2114829
atp1975
Rp1976
F3898.804
tp1977
a(g1
((lp1978
I8394515
aI1053707
atp1979
Rp1980
F3900.44
tp1981
a(g1
((lp1982
I1057803
aI533255
atp1983
Rp1984
F3902.812
tp1985
a(g1
((lp1986
I8394515
aI16787479
atp1987
Rp1988
F3905.192
tp1989
a(g1
((lp1990
I8423187
aI1057803
atp1991
Rp1992
F3924.176
tp1993
a(g1
((lp1994
I2114829
aI67119647
atp1995
Rp1996
F3924.928
tp1997
a(g1
((lp1998
I8394515
aI1057803
atp1999
Rp2000
F3925.1
tp2001
a(g1
((lp2002
I8394515
aI1065995
atp2003
Rp2004
F3925.196
tp2005
a(g1
((lp2006
I8398611
aI1057803
atp2007
Rp2008
F3929.696
tp2009
a(g1
((lp2010
I1082379
aI529159
atp2011
Rp2012
F3931.656
tp2013
a(g1
((lp2014
I1057803
aI529159
atp2015
Rp2016
F3939.66
tp2017
a(g1
((lp2018
I1065995
aI8398611
atp2019
Rp2020
F3939.72
tp2021
a(g1
((lp2022
I135427
aI2102541
atp2023
Rp2024
F3939.94
tp2025
a(g1
((lp2026
I541447
aI529159
atp2027
Rp2028
F3940.236
tp2029
a(g1
((lp2030
I295429
aI266757
atp2031
Rp2032
F3949.272
tp2033
a(g1
((lp2034
I73730
aI2102541
atp2035
Rp2036
F3952.368
tp2037
a(g1
((lp2038
I557831
aI533255
atp2039
Rp2040
F3958.232
tp2041
a(g1
((lp2042
I1057803
aI16812055
atp2043
Rp2044
F3960.032
tp2045
a(g1
((lp2046
I1082379
aI533255
atp2047
Rp2048
F3967.444
tp2049
a(g1
((lp2050
I1053707
aI541447
atp2051
Rp2052
F3971.764
tp2053
a(g1
((lp2054
I2102541
aI266757
atp2055
Rp2056
F3974.612
tp2057
a(g1
((lp2058
I8394515
aI16783383
atp2059
Rp2060
F3975.072
tp2061
a(g1
((lp2062
I33560861
aI16812055
atp2063
Rp2064
F3978.264
tp2065
a(g1
((lp2066
I1057803
aI541447
atp2067
Rp2068
F3981.404
tp2069
a(g1
((lp2070
I1065995
aI557831
atp2071
Rp2072
F3990.104
tp2073
a(g1
((lp2074
I533255
aI541447
atp2075
Rp2076
F3996.38
tp2077
a(g1
((lp2078
I1065995
aI8423187
atp2079
Rp2080
F3997.36
tp2081
a(g1
((lp2082
I73730
aI2114829
atp2083
Rp2084
F3998.384
tp2085
a(g1
((lp2086
I8406803
aI1057803
atp2087
Rp2088
F3999.008
tp2089
a(g1
((lp2090
I33564957
aI2114829
atp2091
Rp2092
F3999.064
tp2093
a(g1
((lp2094
I1053707
aI529159
atp2095
Rp2096
F4010.864
tp2097
a(g1
((lp2098
I1065995
aI529159
atp2099
Rp2100
F4012.512
tp2101
a(g1
((lp2102
I1065995
aI533255
atp2103
Rp2104
F4014.976
tp2105
a(g1
((lp2106
I533255
aI529159
atp2107
Rp2108
F4015.156
tp2109
a(g1
((lp2110
I8394515
aI1082379
atp2111
Rp2112
F4021.896
tp2113
a(g1
((lp2114
I81922
aI2102541
atp2115
Rp2116
F4030.668
tp2117
a(g1
((lp2118
I279045
aI295429
atp2119
Rp2120
F4046.112
tp2121
a(g1
((lp2122
I8398611
aI33564957
atp2123
Rp2124
F4066.012
tp2125
a(g1
((lp2126
I1065995
aI541447
atp2127
Rp2128
F4092.484
tp2129
a(g1
((lp2130
I1082379
aI16795671
atp2131
Rp2132
F4094.3
tp2133
a(g1
((lp2134
I279045
aI266757
atp2135
Rp2136
F4097.232
tp2137
a(g1
((lp2138
I98306
aI164099
atp2139
Rp2140
F4102.452
tp2141
a(g1
((lp2142
I8406803
aI1053707
atp2143
Rp2144
F4120.42
tp2145
a(g1
((lp2146
I135427
aI164099
atp2147
Rp2148
F4132.596
tp2149
a(g1
((lp2150
I8398611
aI557831
atp2151
Rp2152
F4146.36
tp2153
a(g1
((lp2154
I139523
aI164099
atp2155
Rp2156
F4156.38
tp2157
a(g1
((lp2158
I33589533
aI16795671
atp2159
Rp2160
F4174.816
tp2161
a(g1
((lp2162
I33589533
aI16783383
atp2163
Rp2164
F4174.88
tp2165
a(g1
((lp2166
I69634
aI98306
atp2167
Rp2168
F4189.872
tp2169
a(g1
((lp2170
I1057803
aI16787479
atp2171
Rp2172
F4202.352
tp2173
a(g1
((lp2174
I1082379
aI16783383
atp2175
Rp2176
F4205.976
tp2177
a(g1
((lp2178
I8406803
aI33589533
atp2179
Rp2180
F4206.072
tp2181
a(g1
((lp2182
I8394515
aI33589533
atp2183
Rp2184
F4210.872
tp2185
a(g1
((lp2186
I81922
aI98306
atp2187
Rp2188
F4220.524
tp2189
a(g1
((lp2190
I8394515
aI557831
atp2191
Rp2192
F4228.348
tp2193
a(g1
((lp2194
I1053707
aI16812055
atp2195
Rp2196
F4238.604
tp2197
a(g1
((lp2198
I33560861
aI16783383
atp2199
Rp2200
F4250.504
tp2201
a(g1
((lp2202
I73730
aI98306
atp2203
Rp2204
F4253.868
tp2205
a(g1
((lp2206
I8423187
aI33573149
atp2207
Rp2208
F4256.844
tp2209
a(g1
((lp2210
I33560861
aI16795671
atp2211
Rp2212
F4258.564
tp2213
a(g1
((lp2214
I8423187
aI529159
atp2215
Rp2216
F4261.584
tp2217
a(g1
((lp2218
I270853
aI266757
atp2219
Rp2220
F4262.28
tp2221
a(g1
((lp2222
I8406803
aI557831
atp2223
Rp2224
F4263.868
tp2225
a(g1
((lp2226
I33573149
aI16795671
atp2227
Rp2228
F4265.372
tp2229
a(g1
((lp2230
I1053707
aI295429
atp2231
Rp2232
F4266.76
tp2233
a(g1
((lp2234
I33564957
aI16787479
atp2235
Rp2236
F4268.268
tp2237
a(g1
((lp2238
I1082379
aI270853
atp2239
Rp2240
F4277.796
tp2241
a(g1
((lp2242
I8398611
aI33589533
atp2243
Rp2244
F4300.528
tp2245
a(g1
((lp2246
I8394515
aI33560861
atp2247
Rp2248
F4315.596
tp2249
a(g1
((lp2250
I164099
aI147715
atp2251
Rp2252
F4318.384
tp2253
a(g1
((lp2254
I33573149
aI16812055
atp2255
Rp2256
F4329.292
tp2257
a(g1
((lp2258
I1053707
aI16787479
atp2259
Rp2260
F4329.48
tp2261
a(g1
((lp2262
I1065995
aI16787479
atp2263
Rp2264
F4331.88
tp2265
a(g1
((lp2266
I268446761
aI16787479
atp2267
Rp2268
F4334.076
tp2269
a(g1
((lp2270
I1065995
aI16812055
atp2271
Rp2272
F4337.42
tp2273
a(g1
((lp2274
I139523
aI147715
atp2275
Rp2276
F4341.424
tp2277
a(g1
((lp2278
I1082379
aI16787479
atp2279
Rp2280
F4344.772
tp2281
a(g1
((lp2282
I73730
aI81922
atp2283
Rp2284
F4346.72
tp2285
a(g1
((lp2286
I270853
aI279045
atp2287
Rp2288
F4347.272
tp2289
a(g1
((lp2290
I266757
aI557831
atp2291
Rp2292
F4356.712
tp2293
a(g1
((lp2294
I1057803
aI270853
atp2295
Rp2296
F4360.16
tp2297
a(g1
((lp2298
I268442665
aI1082379
atp2299
Rp2300
F4361.348
tp2301
a(g1
((lp2302
I139523
aI135427
atp2303
Rp2304
F4362.288
tp2305
a(g1
((lp2306
I33573149
aI16783383
atp2307
Rp2308
F4363.392
tp2309
a(g1
((lp2310
I8423187
aI33560861
atp2311
Rp2312
F4366.392
tp2313
a(g1
((lp2314
I8423187
aI533255
atp2315
Rp2316
F4377.928
tp2317
a(g1
((lp2318
I33564957
aI16812055
atp2319
Rp2320
F4384.84
tp2321
a(g1
((lp2322
I8398611
aI533255
atp2323
Rp2324
F4386.516
tp2325
a(g1
((lp2326
I8398611
aI529159
atp2327
Rp2328
F4386.632
tp2329
a(g1
((lp2330
I33589533
aI16787479
atp2331
Rp2332
F4387.644
tp2333
a(g1
((lp2334
I1057803
aI16783383
atp2335
Rp2336
F4388.388
tp2337
a(g1
((lp2338
I8423187
aI33564957
atp2339
Rp2340
F4397.624
tp2341
a(g1
((lp2342
I8398611
aI33573149
atp2343
Rp2344
F4402.16
tp2345
a(g1
((lp2346
I8394515
aI33564957
atp2347
Rp2348
F4405.956
tp2349
a(g1
((lp2350
I279045
aI557831
atp2351
Rp2352
F4409.224
tp2353
a(g1
((lp2354
I33564957
aI16795671
atp2355
Rp2356
F4411.04
tp2357
a(g1
((lp2358
I33564957
aI16783383
atp2359
Rp2360
F4412.896
tp2361
a(g1
((lp2362
I1065995
aI295429
atp2363
Rp2364
F4422.828
tp2365
a(g1
((lp2366
I1082379
aI266757
atp2367
Rp2368
F4423.436
tp2369
a(g1
((lp2370
I1057803
aI295429
atp2371
Rp2372
F4429.552
tp2373
a(g1
((lp2374
I8406803
aI33560861
atp2375
Rp2376
F4434.928
tp2377
a(g1
((lp2378
I268454953
aI8423187
atp2379
Rp2380
F4443.128
tp2381
a(g1
((lp2382
I73730
aI69634
atp2383
Rp2384
F4445.78
tp2385
a(g1
((lp2386
I268471337
aI16783383
atp2387
Rp2388
F4446.54
tp2389
a(g1
((lp2390
I268442665
aI16812055
atp2391
Rp2392
F4447.412
tp2393
a(g1
((lp2394
I8406803
aI33564957
atp2395
Rp2396
F4451.976
tp2397
a(g1
((lp2398
I268454953
aI16812055
atp2399
Rp2400
F4453.252
tp2401
a(g1
((lp2402
I8398611
aI33560861
atp2403
Rp2404
F4458.396
tp2405
a(g1
((lp2406
I8394515
aI33573149
atp2407
Rp2408
F4462.312
tp2409
a(g1
((lp2410
I268454953
aI33589533
atp2411
Rp2412
F4464.96
tp2413
a(g1
((lp2414
I268471337
aI541447
atp2415
Rp2416
F4470.708
tp2417
a(g1
((lp2418
I268446761
aI67144223
atp2419
Rp2420
F4472.836
tp2421
a(g1
((lp2422
I8394515
aI541447
atp2423
Rp2424
F4476.44
tp2425
a(g1
((lp2426
I268471337
aI67119647
atp2427
Rp2428
F4478.316
tp2429
a(g1
((lp2430
I33560861
aI16787479
atp2431
Rp2432
F4478.944
tp2433
a(g1
((lp2434
I295429
aI529159
atp2435
Rp2436
F4497.592
tp2437
a(g1
((lp2438
I268471337
aI16795671
atp2439
Rp2440
F4503.524
tp2441
a(g1
((lp2442
I295429
aI541447
atp2443
Rp2444
F4504.464
tp2445
a(g1
((lp2446
I1082379
aI279045
atp2447
Rp2448
F4504.696
tp2449
a(g1
((lp2450
I33573149
aI16787479
atp2451
Rp2452
F4505.644
tp2453
a(g1
((lp2454
I8423187
aI541447
atp2455
Rp2456
F4509.256
tp2457
a(g1
((lp2458
I268446761
aI33564957
atp2459
Rp2460
F4509.372
tp2461
a(g1
((lp2462
I268471337
aI33564957
atp2463
Rp2464
F4509.732
tp2465
a(g1
((lp2466
I268454953
aI1082379
atp2467
Rp2468
F4521.112
tp2469
a(g1
((lp2470
I1053707
aI16795671
atp2471
Rp2472
F4521.228
tp2473
a(g1
((lp2474
I1065995
aI270853
atp2475
Rp2476
F4525.324
tp2477
a(g1
((lp2478
I1065995
aI279045
atp2479
Rp2480
F4528.128
tp2481
a(g1
((lp2482
I268471337
aI8394515
atp2483
Rp2484
F4528.924
tp2485
a(g1
((lp2486
I135427
aI147715
atp2487
Rp2488
F4534.216
tp2489
a(g1
((lp2490
I268446761
aI33589533
atp2491
Rp2492
F4537.628
tp2493
a(g1
((lp2494
I1057803
aI16795671
atp2495
Rp2496
F4539.632
tp2497
a(g1
((lp2498
I1065995
aI266757
atp2499
Rp2500
F4541.18
tp2501
a(g1
((lp2502
I268454953
aI557831
atp2503
Rp2504
F4542.34
tp2505
a(g1
((lp2506
I268442665
aI33589533
atp2507
Rp2508
F4543.824
tp2509
a(g1
((lp2510
I268446761
aI67119647
atp2511
Rp2512
F4545.216
tp2513
a(g1
((lp2514
I268446761
aI16812055
atp2515
Rp2516
F4546.308
tp2517
a(g1
((lp2518
I279045
aI533255
atp2519
Rp2520
F4547.26
tp2521
a(g1
((lp2522
I268446761
aI8398611
atp2523
Rp2524
F4548.356
tp2525
a(g1
((lp2526
I295429
aI533255
atp2527
Rp2528
F4552.172
tp2529
a(g1
((lp2530
I1057803
aI266757
atp2531
Rp2532
F4553.188
tp2533
a(g1
((lp2534
I1053707
aI270853
atp2535
Rp2536
F4553.72
tp2537
a(g1
((lp2538
I268442665
aI557831
atp2539
Rp2540
F4554.972
tp2541
a(g1
((lp2542
I8394515
aI529159
atp2543
Rp2544
F4558.528
tp2545
a(g1
((lp2546
I69634
aI81922
atp2547
Rp2548
F4559.8
tp2549
a(g1
((lp2550
I8406803
aI33573149
atp2551
Rp2552
F4561.428
tp2553
a(g1
((lp2554
I268471337
aI16787479
atp2555
Rp2556
F4564.868
tp2557
a(g1
((lp2558
I8394515
aI533255
atp2559
Rp2560
F4565.472
tp2561
a(g1
((lp2562
I268446761
aI533255
atp2563
Rp2564
F4567.488
tp2565
a(g1
((lp2566
I268442665
aI1057803
atp2567
Rp2568
F4569.924
tp2569
a(g1
((lp2570
I268471337
aI33560861
atp2571
Rp2572
F4573.66
tp2573
a(g1
((lp2574
I268471337
aI33573149
atp2575
Rp2576
F4575.492
tp2577
a(g1
((lp2578
I8406803
aI533255
atp2579
Rp2580
F4576.108
tp2581
a(g1
((lp2582
I1065995
aI67144223
atp2583
Rp2584
F4580.728
tp2585
a(g1
((lp2586
I268471337
aI1053707
atp2587
Rp2588
F4588.344
tp2589
a(g1
((lp2590
I1065995
aI16795671
atp2591
Rp2592
F4589.768
tp2593
a(g1
((lp2594
I268471337
aI8398611
atp2595
Rp2596
F4593.824
tp2597
a(g1
((lp2598
I16795671
aI67144223
atp2599
Rp2600
F4595.612
tp2601
a(g1
((lp2602
I268471337
aI67127839
atp2603
Rp2604
F4597.292
tp2605
a(g1
((lp2606
I1053707
aI16783383
atp2607
Rp2608
F4599.496
tp2609
a(g1
((lp2610
I16783383
aI67144223
atp2611
Rp2612
F4601.872
tp2613
a(g1
((lp2614
I279045
aI529159
atp2615
Rp2616
F4603.08
tp2617
a(g1
((lp2618
I8406803
aI541447
atp2619
Rp2620
F4608.328
tp2621
a(g1
((lp2622
I270853
aI533255
atp2623
Rp2624
F4610.776
tp2625
a(g1
((lp2626
I268471337
aI67115551
atp2627
Rp2628
F4613.476
tp2629
a(g1
((lp2630
I8406803
aI529159
atp2631
Rp2632
F4613.944
tp2633
a(g1
((lp2634
I268442665
aI8423187
atp2635
Rp2636
F4618.096
tp2637
a(g1
((lp2638
I268454953
aI8394515
atp2639
Rp2640
F4619.18
tp2641
a(g1
((lp2642
I279045
aI541447
atp2643
Rp2644
F4619.56
tp2645
a(g1
((lp2646
I268454953
aI33573149
atp2647
Rp2648
F4624.988
tp2649
a(g1
((lp2650
I268454953
aI33564957
atp2651
Rp2652
F4625.504
tp2653
a(g1
((lp2654
I268446761
aI8423187
atp2655
Rp2656
F4626.584
tp2657
a(g1
((lp2658
I268454953
aI16795671
atp2659
Rp2660
F4627.416
tp2661
a(g1
((lp2662
I33560861
aI557831
atp2663
Rp2664
F4627.624
tp2665
a(g1
((lp2666
I1065995
aI16783383
atp2667
Rp2668
F4629.568
tp2669
a(g1
((lp2670
I268442665
aI8394515
atp2671
Rp2672
F4634.288
tp2673
a(g1
((lp2674
I67115551
aI16812055
atp2675
Rp2676
F4635.664
tp2677
a(g1
((lp2678
I268446761
aI1082379
atp2679
Rp2680
F4642.244
tp2681
a(g1
((lp2682
I268442665
aI16795671
atp2683
Rp2684
F4645.16
tp2685
a(g1
((lp2686
I268442665
aI67115551
atp2687
Rp2688
F4649.252
tp2689
a(g1
((lp2690
I268454953
aI67144223
atp2691
Rp2692
F4651.16
tp2693
a(g1
((lp2694
I33564957
aI557831
atp2695
Rp2696
F4651.384
tp2697
a(g1
((lp2698
I268446761
aI557831
atp2699
Rp2700
F4653.816
tp2701
a(g1
((lp2702
I16783383
aI67127839
atp2703
Rp2704
F4656.932
tp2705
a(g1
((lp2706
I16787479
aI67144223
atp2707
Rp2708
F4658.496
tp2709
a(g1
((lp2710
I268446761
aI295429
atp2711
Rp2712
F4659.252
tp2713
a(g1
((lp2714
I268446761
aI1057803
atp2715
Rp2716
F4659.344
tp2717
a(g1
((lp2718
I268446761
aI16783383
atp2719
Rp2720
F4661.588
tp2721
a(g1
((lp2722
I268442665
aI16787479
atp2723
Rp2724
F4662.08
tp2725
a(g1
((lp2726
I270853
aI541447
atp2727
Rp2728
F4665.14
tp2729
a(g1
((lp2730
I1053707
aI67144223
atp2731
Rp2732
F4665.72
tp2733
a(g1
((lp2734
I268446761
aI8406803
atp2735
Rp2736
F4666.256
tp2737
a(g1
((lp2738
I268446761
aI270853
atp2739
Rp2740
F4667.416
tp2741
a(g1
((lp2742
I268442665
aI67144223
atp2743
Rp2744
F4670.952
tp2745
a(g1
((lp2746
I268471337
aI8406803
atp2747
Rp2748
F4672.908
tp2749
a(g1
((lp2750
I268471337
aI135427
atp2751
Rp2752
F4674.052
tp2753
a(g1
((lp2754
I266757
aI529159
atp2755
Rp2756
F4675.16
tp2757
a(g1
((lp2758
I1053707
aI33589533
atp2759
Rp2760
F4675.584
tp2761
a(g1
((lp2762
I268442665
aI16783383
atp2763
Rp2764
F4684.556
tp2765
a(g1
((lp2766
I8406803
aI67144223
atp2767
Rp2768
F4685.888
tp2769
a(g1
((lp2770
I1057803
aI279045
atp2771
Rp2772
F4686.852
tp2773
a(g1
((lp2774
I268471337
aI1057803
atp2775
Rp2776
F4688.98
tp2777
a(g1
((lp2778
I268442665
aI33560861
atp2779
Rp2780
F4689.676
tp2781
a(g1
((lp2782
I266757
aI533255
atp2783
Rp2784
F4690.5
tp2785
a(g1
((lp2786
I268471337
aI529159
atp2787
Rp2788
F4694.556
tp2789
a(g1
((lp2790
I8394515
aI67144223
atp2791
Rp2792
F4698.752
tp2793
a(g1
((lp2794
I557831
aI16787479
atp2795
Rp2796
F4699.044
tp2797
a(g1
((lp2798
I16787479
aI533255
atp2799
Rp2800
F4700.828
tp2801
a(g1
((lp2802
I1057803
aI33564957
atp2803
Rp2804
F4703.008
tp2805
a(g1
((lp2806
I8398611
aI541447
atp2807
Rp2808
F4704.064
tp2809
a(g1
((lp2810
I67119647
aI16812055
atp2811
Rp2812
F4714.404
tp2813
a(g1
((lp2814
I33573149
aI67144223
atp2815
Rp2816
F4716.192
tp2817
a(g1
((lp2818
I268442665
aI295429
atp2819
Rp2820
F4719.396
tp2821
a(g1
((lp2822
I33560861
aI67119647
atp2823
Rp2824
F4720.008
tp2825
a(g1
((lp2826
I268471337
aI1065995
atp2827
Rp2828
F4722.264
tp2829
a(g1
((lp2830
I1053707
aI266757
atp2831
Rp2832
F4725.892
tp2833
a(g1
((lp2834
I16787479
aI67119647
atp2835
Rp2836
F4726.72
tp2837
a(g1
((lp2838
I268446761
aI33560861
atp2839
Rp2840
F4728.012
tp2841
a(g1
((lp2842
I268471337
aI279045
atp2843
Rp2844
F4728.948
tp2845
a(g1
((lp2846
I33564957
aI67144223
atp2847
Rp2848
F4731.352
tp2849
a(g1
((lp2850
I268442665
aI164099
atp2851
Rp2852
F4731.58
tp2853
a(g1
((lp2854
I268442665
aI1065995
atp2855
Rp2856
F4732.124
tp2857
a(g1
((lp2858
I557831
aI67119647
atp2859
Rp2860
F4733.044
tp2861
a(g1
((lp2862
I1082379
aI67119647
atp2863
Rp2864
F4733.704
tp2865
a(g1
((lp2866
I268454953
aI8398611
atp2867
Rp2868
F4734.42
tp2869
a(g1
((lp2870
I268454953
aI16787479
atp2871
Rp2872
F4735.36
tp2873
a(g1
((lp2874
I268471337
aI533255
atp2875
Rp2876
F4735.38
tp2877
a(g1
((lp2878
I268454953
aI529159
atp2879
Rp2880
F4740.44
tp2881
a(g1
((lp2882
I33560861
aI67144223
atp2883
Rp2884
F4743.636
tp2885
a(g1
((lp2886
I533255
aI67144223
atp2887
Rp2888
F4744.508
tp2889
a(g1
((lp2890
I268446761
aI16795671
atp2891
Rp2892
F4744.792
tp2893
a(g1
((lp2894
I268446761
aI98306
atp2895
Rp2896
F4747.052
tp2897
a(g1
((lp2898
I1053707
aI279045
atp2899
Rp2900
F4747.9
tp2901
a(g1
((lp2902
I268442665
aI33573149
atp2903
Rp2904
F4748.632
tp2905
a(g1
((lp2906
I16795671
aI67127839
atp2907
Rp2908
F4750.44
tp2909
a(g1
((lp2910
I268442665
aI33564957
atp2911
Rp2912
F4753.18
tp2913
a(g1
((lp2914
I139523
aI8398611
atp2915
Rp2916
F4756.388
tp2917
a(g1
((lp2918
I268454953
aI16783383
atp2919
Rp2920
F4756.536
tp2921
a(g1
((lp2922
I270853
aI557831
atp2923
Rp2924
F4757.208
tp2925
a(g1
((lp2926
I268454953
aI8406803
atp2927
Rp2928
F4759.588
tp2929
a(g1
((lp2930
I295429
aI67115551
atp2931
Rp2932
F4760.484
tp2933
a(g1
((lp2934
I268454953
aI1053707
atp2935
Rp2936
F4760.804
tp2937
a(g1
((lp2938
I268454953
aI164099
atp2939
Rp2940
F4763.316
tp2941
a(g1
((lp2942
I268446761
aI8394515
atp2943
Rp2944
F4765.26
tp2945
a(g1
((lp2946
I1082379
aI33560861
atp2947
Rp2948
F4769.316
tp2949
a(g1
((lp2950
I67115551
aI16795671
atp2951
Rp2952
F4769.856
tp2953
a(g1
((lp2954
I268454953
aI295429
atp2955
Rp2956
F4774.416
tp2957
a(g1
((lp2958
I268442665
aI8398611
atp2959
Rp2960
F4774.844
tp2961
a(g1
((lp2962
I268454953
aI67115551
atp2963
Rp2964
F4778.652
tp2965
a(g1
((lp2966
I1057803
aI67144223
atp2967
Rp2968
F4781.656
tp2969
a(g1
((lp2970
I268471337
aI147715
atp2971
Rp2972
F4781.68
tp2973
a(g1
((lp2974
I33573149
aI67115551
atp2975
Rp2976
F4781.884
tp2977
a(g1
((lp2978
I33564957
aI67119647
atp2979
Rp2980
F4784.52
tp2981
a(g1
((lp2982
I557831
aI67127839
atp2983
Rp2984
F4786.12
tp2985
a(g1
((lp2986
I1053707
aI33573149
atp2987
Rp2988
F4786.86
tp2989
a(g1
((lp2990
I268446761
aI67127839
atp2991
Rp2992
F4787.06
tp2993
a(g1
((lp2994
I268446761
aI139523
atp2995
Rp2996
F4788.752
tp2997
a(g1
((lp2998
I268454953
aI33560861
atp2999
Rp3000
F4790.416
tp3001
a(g1
((lp3002
I16812055
aI529159
atp3003
Rp3004
F4790.82
tp3005
a(g1
((lp3006
I33589533
aI533255
atp3007
Rp3008
F4793.324
tp3009
a(g1
((lp3010
I1082379
aI67115551
atp3011
Rp3012
F4793.524
tp3013
a(g1
((lp3014
I1082379
aI67127839
atp3015
Rp3016
F4794.964
tp3017
a(g1
((lp3018
I16812055
aI67127839
atp3019
Rp3020
F4797.272
tp3021
a(g1
((lp3022
I557831
aI16795671
atp3023
Rp3024
F4798.484
tp3025
a(g1
((lp3026
I135427
aI16812055
atp3027
Rp3028
F4799.928
tp3029
a(g1
((lp3030
I268471337
aI73730
atp3031
Rp3032
F4800.552
tp3033
a(g1
((lp3034
I8398611
aI67144223
atp3035
Rp3036
F4800.664
tp3037
a(g1
((lp3038
I33560861
aI67115551
atp3039
Rp3040
F4802.192
tp3041
a(g1
((lp3042
I268471337
aI69634
atp3043
Rp3044
F4802.236
tp3045
a(g1
((lp3046
I533255
aI67119647
atp3047
Rp3048
F4803.072
tp3049
a(g1
((lp3050
I268454953
aI67127839
atp3051
Rp3052
F4804.52
tp3053
a(g1
((lp3054
I268446761
aI1053707
atp3055
Rp3056
F4805.012
tp3057
a(g1
((lp3058
I73730
aI1057803
atp3059
Rp3060
F4805.184
tp3061
a(g1
((lp3062
I33589533
aI67115551
atp3063
Rp3064
F4808.904
tp3065
a(g1
((lp3066
I8406803
aI67115551
atp3067
Rp3068
F4810.992
tp3069
a(g1
((lp3070
I67144223
aI529159
atp3071
Rp3072
F4812.324
tp3073
a(g1
((lp3074
I33589533
aI67127839
atp3075
Rp3076
F4814.876
tp3077
a(g1
((lp3078
I268446761
aI67115551
atp3079
Rp3080
F4816.084
tp3081
a(g1
((lp3082
I139523
aI33589533
atp3083
Rp3084
F4816.104
tp3085
a(g1
((lp3086
I268454953
aI1065995
atp3087
Rp3088
F4817.028
tp3089
a(g1
((lp3090
I270853
aI16812055
atp3091
Rp3092
F4817.584
tp3093
a(g1
((lp3094
I8406803
aI164099
atp3095
Rp3096
F4818.924
tp3097
a(g1
((lp3098
I1082379
aI147715
atp3099
Rp3100
F4819.088
tp3101
a(g1
((lp3102
I8406803
aI67119647
atp3103
Rp3104
F4819.816
tp3105
a(g1
((lp3106
I268442665
aI67119647
atp3107
Rp3108
F4828.028
tp3109
a(g1
((lp3110
I8394515
aI67119647
atp3111
Rp3112
F4828.444
tp3113
a(g1
((lp3114
I268442665
aI541447
atp3115
Rp3116
F4828.692
tp3117
a(g1
((lp3118
I1065995
aI33589533
atp3119
Rp3120
F4829.532
tp3121
a(g1
((lp3122
I1053707
aI67115551
atp3123
Rp3124
F4830.892
tp3125
a(g1
((lp3126
I16787479
aI67115551
atp3127
Rp3128
F4831.784
tp3129
a(g1
((lp3130
I8398611
aI67115551
atp3131
Rp3132
F4836.084
tp3133
a(g1
((lp3134
I268446761
aI1065995
atp3135
Rp3136
F4837.928
tp3137
a(g1
((lp3138
I268442665
aI8406803
atp3139
Rp3140
F4840.564
tp3141
a(g1
((lp3142
I8394515
aI295429
atp3143
Rp3144
F4843.212
tp3145
a(g1
((lp3146
I533255
aI16812055
atp3147
Rp3148
F4845.38
tp3149
a(g1
((lp3150
I266757
aI541447
atp3151
Rp3152
F4845.472
tp3153
a(g1
((lp3154
I1057803
aI67119647
atp3155
Rp3156
F4845.676
tp3157
a(g1
((lp3158
I8423187
aI266757
atp3159
Rp3160
F4846.912
tp3161
a(g1
((lp3162
I268454953
aI1057803
atp3163
Rp3164
F4847.144
tp3165
a(g1
((lp3166
I268471337
aI270853
atp3167
Rp3168
F4848.184
tp3169
a(g1
((lp3170
I268442665
aI533255
atp3171
Rp3172
F4849.16
tp3173
a(g1
((lp3174
I8423187
aI67115551
atp3175
Rp3176
F4853.896
tp3177
a(g1
((lp3178
I268471337
aI139523
atp3179
Rp3180
F4853.904
tp3181
a(g1
((lp3182
I8394515
aI67127839
atp3183
Rp3184
F4855.544
tp3185
a(g1
((lp3186
I279045
aI16812055
atp3187
Rp3188
F4855.608
tp3189
a(g1
((lp3190
I98306
aI8394515
atp3191
Rp3192
F4856.128
tp3193
a(g1
((lp3194
I8423187
aI270853
atp3195
Rp3196
F4856.508
tp3197
a(g1
((lp3198
I268446761
aI33573149
atp3199
Rp3200
F4857.204
tp3201
a(g1
((lp3202
I295429
aI16783383
atp3203
Rp3204
F4857.972
tp3205
a(g1
((lp3206
I73730
aI16812055
atp3207
Rp3208
F4858.544
tp3209
a(g1
((lp3210
I8423187
aI67127839
atp3211
Rp3212
F4858.8
tp3213
a(g1
((lp3214
I270853
aI67119647
atp3215
Rp3216
F4859.188
tp3217
a(g1
((lp3218
I268471337
aI266757
atp3219
Rp3220
F4859.508
tp3221
a(g1
((lp3222
I268446761
aI529159
atp3223
Rp3224
F4860.54
tp3225
a(g1
((lp3226
I1057803
aI67127839
atp3227
Rp3228
F4863.32
tp3229
a(g1
((lp3230
I33564957
aI533255
atp3231
Rp3232
F4863.96
tp3233
a(g1
((lp3234
I33589533
aI279045
atp3235
Rp3236
F4864.772
tp3237
a(g1
((lp3238
I295429
aI16795671
atp3239
Rp3240
F4865.304
tp3241
a(g1
((lp3242
I268471337
aI81922
atp3243
Rp3244
F4865.504
tp3245
a(g1
((lp3246
I268454953
aI98306
atp3247
Rp3248
F4867.316
tp3249
a(g1
((lp3250
I33560861
aI295429
atp3251
Rp3252
F4868.436
tp3253
a(g1
((lp3254
I268446761
aI147715
atp3255
Rp3256
F4870.38
tp3257
a(g1
((lp3258
I1057803
aI33589533
atp3259
Rp3260
F4870.932
tp3261
a(g1
((lp3262
I541447
aI16812055
atp3263
Rp3264
F4872.428
tp3265
a(g1
((lp3266
I33589533
aI529159
atp3267
Rp3268
F4872.764
tp3269
a(g1
((lp3270
I268442665
aI1053707
atp3271
Rp3272
F4875.092
tp3273
a(g1
((lp3274
I139523
aI16812055
atp3275
Rp3276
F4878.048
tp3277
a(g1
((lp3278
I268442665
aI67127839
atp3279
Rp3280
F4879.22
tp3281
a(g1
((lp3282
I33564957
aI67127839
atp3283
Rp3284
F4879.944
tp3285
a(g1
((lp3286
I268446761
aI541447
atp3287
Rp3288
F4881.504
tp3289
a(g1
((lp3290
I295429
aI16787479
atp3291
Rp3292
F4885.764
tp3293
a(g1
((lp3294
I147715
aI16812055
atp3295
Rp3296
F4886.004
tp3297
a(g1
((lp3298
I1082379
aI33573149
atp3299
Rp3300
F4886.988
tp3301
a(g1
((lp3302
I1065995
aI67127839
atp3303
Rp3304
F4887.636
tp3305
a(g1
((lp3306
I1082379
aI135427
atp3307
Rp3308
F4891.2
tp3309
a(g1
((lp3310
I268454953
aI67119647
atp3311
Rp3312
F4893.572
tp3313
a(g1
((lp3314
I557831
aI16783383
atp3315
Rp3316
F4894.564
tp3317
a(g1
((lp3318
I268454953
aI139523
atp3319
Rp3320
F4895.684
tp3321
a(g1
((lp3322
I270853
aI16795671
atp3323
Rp3324
F4897.192
tp3325
a(g1
((lp3326
I268454953
aI533255
atp3327
Rp3328
F4898.46
tp3329
a(g1
((lp3330
I98306
aI33560861
atp3331
Rp3332
F4899.56
tp3333
a(g1
((lp3334
I268446761
aI73730
atp3335
Rp3336
F4900.1
tp3337
a(g1
((lp3338
I33589533
aI67119647
atp3339
Rp3340
F4902.32
tp3341
a(g1
((lp3342
I268442665
aI98306
atp3343
Rp3344
F4904.424
tp3345
a(g1
((lp3346
I1082379
aI33564957
atp3347
Rp3348
F4905.74
tp3349
a(g1
((lp3350
I270853
aI529159
atp3351
Rp3352
F4906.032
tp3353
a(g1
((lp3354
I268454953
aI266757
atp3355
Rp3356
F4906.456
tp3357
a(g1
((lp3358
I1057803
aI33560861
atp3359
Rp3360
F4909.78
tp3361
a(g1
((lp3362
I268446761
aI266757
atp3363
Rp3364
F4911.644
tp3365
a(g1
((lp3366
I268446761
aI81922
atp3367
Rp3368
F4912.1
tp3369
a(g1
((lp3370
I541447
aI67127839
atp3371
Rp3372
F4915.348
tp3373
a(g1
((lp3374
I164099
aI67127839
atp3375
Rp3376
F4916.36
tp3377
a(g1
((lp3378
I270853
aI16787479
atp3379
Rp3380
F4916.928
tp3381
a(g1
((lp3382
I69634
aI8423187
atp3383
Rp3384
F4916.932
tp3385
a(g1
((lp3386
I33560861
aI541447
atp3387
Rp3388
F4919.548
tp3389
a(g1
((lp3390
I67119647
aI529159
atp3391
Rp3392
F4921.324
tp3393
a(g1
((lp3394
I16787479
aI529159
atp3395
Rp3396
F4922.992
tp3397
a(g1
((lp3398
I268446761
aI279045
atp3399
Rp3400
F4923.252
tp3401
a(g1
((lp3402
I8423187
aI67119647
atp3403
Rp3404
F4925.172
tp3405
a(g1
((lp3406
I268446761
aI164099
atp3407
Rp3408
F4926.628
tp3409
a(g1
((lp3410
I8423187
aI147715
atp3411
Rp3412
F4926.756
tp3413
a(g1
((lp3414
I270853
aI33589533
atp3415
Rp3416
F4930.536
tp3417
a(g1
((lp3418
I98306
aI1057803
atp3419
Rp3420
F4931.176
tp3421
a(g1
((lp3422
I270853
aI67144223
atp3423
Rp3424
F4932.02
tp3425
a(g1
((lp3426
I268442665
aI270853
atp3427
Rp3428
F4933.584
tp3429
a(g1
((lp3430
I268454953
aI279045
atp3431
Rp3432
F4933.6
tp3433
a(g1
((lp3434
I8398611
aI67119647
atp3435
Rp3436
F4934.612
tp3437
a(g1
((lp3438
I16795671
aI529159
atp3439
Rp3440
F4934.648
tp3441
a(g1
((lp3442
I1053707
aI67119647
atp3443
Rp3444
F4934.844
tp3445
a(g1
((lp3446
I270853
aI16783383
atp3447
Rp3448
F4936.2
tp3449
a(g1
((lp3450
I81922
aI1082379
atp3451
Rp3452
F4937.516
tp3453
a(g1
((lp3454
I33560861
aI67127839
atp3455
Rp3456
F4938.74
tp3457
a(g1
((lp3458
I268454953
aI147715
atp3459
Rp3460
F4941.532
tp3461
a(g1
((lp3462
I69634
aI33589533
atp3463
Rp3464
F4943.876
tp3465
a(g1
((lp3466
I33573149
aI295429
atp3467
Rp3468
F4944.504
tp3469
a(g1
((lp3470
I8406803
aI295429
atp3471
Rp3472
F4946.072
tp3473
a(g1
((lp3474
I1065995
aI67119647
atp3475
Rp3476
F4946.612
tp3477
a(g1
((lp3478
I1057803
aI33573149
atp3479
Rp3480
F4950.852
tp3481
a(g1
((lp3482
I268454953
aI541447
atp3483
Rp3484
F4951.312
tp3485
a(g1
((lp3486
I557831
aI67115551
atp3487
Rp3488
F4954.0
tp3489
a(g1
((lp3490
I33573149
aI67119647
atp3491
Rp3492
F4954.268
tp3493
a(g1
((lp3494
I67115551
aI529159
atp3495
Rp3496
F4955.692
tp3497
a(g1
((lp3498
I279045
aI67144223
atp3499
Rp3500
F4955.836
tp3501
a(g1
((lp3502
I67127839
aI529159
atp3503
Rp3504
F4957.108
tp3505
a(g1
((lp3506
I33560861
aI529159
atp3507
Rp3508
F4959.26
tp3509
a(g1
((lp3510
I533255
aI67115551
atp3511
Rp3512
F4959.9
tp3513
a(g1
((lp3514
I98306
aI67115551
atp3515
Rp3516
F4960.756
tp3517
a(g1
((lp3518
I533255
aI67127839
atp3519
Rp3520
F4962.888
tp3521
a(g1
((lp3522
I33573149
aI529159
atp3523
Rp3524
F4964.252
tp3525
a(g1
((lp3526
I268442665
aI279045
atp3527
Rp3528
F4964.916
tp3529
a(g1
((lp3530
I73730
aI8406803
atp3531
Rp3532
F4966.756
tp3533
a(g1
((lp3534
I139523
aI33564957
atp3535
Rp3536
F4968.872
tp3537
a(g1
((lp3538
I33589533
aI266757
atp3539
Rp3540
F4970.824
tp3541
a(g1
((lp3542
I81922
aI8423187
atp3543
Rp3544
F4970.876
tp3545
a(g1
((lp3546
I268454953
aI73730
atp3547
Rp3548
F4971.404
tp3549
a(g1
((lp3550
I16783383
aI67119647
atp3551
Rp3552
F4971.508
tp3553
a(g1
((lp3554
I164099
aI16783383
atp3555
Rp3556
F4971.98
tp3557
a(g1
((lp3558
I164099
aI33560861
atp3559
Rp3560
F4972.064
tp3561
a(g1
((lp3562
I73730
aI16787479
atp3563
Rp3564
F4972.188
tp3565
a(g1
((lp3566
I266757
aI16812055
atp3567
Rp3568
F4973.216
tp3569
a(g1
((lp3570
I268442665
aI529159
atp3571
Rp3572
F4973.408
tp3573
a(g1
((lp3574
I266757
aI16783383
atp3575
Rp3576
F4975.464
tp3577
a(g1
((lp3578
I33589533
aI541447
atp3579
Rp3580
F4978.264
tp3581
a(g1
((lp3582
I8423187
aI135427
atp3583
Rp3584
F4979.84
tp3585
a(g1
((lp3586
I73730
aI8398611
atp3587
Rp3588
F4980.124
tp3589
a(g1
((lp3590
I33564957
aI295429
atp3591
Rp3592
F4980.308
tp3593
a(g1
((lp3594
I69634
aI67144223
atp3595
Rp3596
F4980.62
tp3597
a(g1
((lp3598
I8406803
aI279045
atp3599
Rp3600
F4983.184
tp3601
a(g1
((lp3602
I268454953
aI81922
atp3603
Rp3604
F4983.764
tp3605
a(g1
((lp3606
I16783383
aI529159
atp3607
Rp3608
F4988.732
tp3609
a(g1
((lp3610
I1053707
aI164099
atp3611
Rp3612
F4989.036
tp3613
a(g1
((lp3614
I268442665
aI266757
atp3615
Rp3616
F4989.748
tp3617
a(g1
((lp3618
I8398611
aI67127839
atp3619
Rp3620
F4991.044
tp3621
a(g1
((lp3622
I8398611
aI270853
atp3623
Rp3624
F4991.264
tp3625
a(g1
((lp3626
I279045
aI16787479
atp3627
Rp3628
F4992.488
tp3629
a(g1
((lp3630
I1057803
aI164099
atp3631
Rp3632
F4993.244
tp3633
a(g1
((lp3634
I1053707
aI67127839
atp3635
Rp3636
F4995.732
tp3637
a(g1
((lp3638
I139523
aI1082379
atp3639
Rp3640
F4996.192
tp3641
a(g1
((lp3642
I270853
aI33573149
atp3643
Rp3644
F4997.06
tp3645
a(g1
((lp3646
I73730
aI67119647
atp3647
Rp3648
F4997.136
tp3649
a(g1
((lp3650
I8394515
aI147715
atp3651
Rp3652
F4998.996
tp3653
a(g1
((lp3654
I33573149
aI541447
atp3655
Rp3656
F5000.252
tp3657
a(g1
((lp3658
I164099
aI33564957
atp3659
Rp3660
F5001.888
tp3661
a(g1
((lp3662
I1065995
aI67115551
atp3663
Rp3664
F5002.968
tp3665
a(g1
((lp3666
I268442665
aI69634
atp3667
Rp3668
F5003.744
tp3669
a(g1
((lp3670
I8398611
aI295429
atp3671
Rp3672
F5004.104
tp3673
a(g1
((lp3674
I164099
aI529159
atp3675
Rp3676
F5005.504
tp3677
a(g1
((lp3678
I135427
aI33589533
atp3679
Rp3680
F5005.9
tp3681
a(g1
((lp3682
I266757
aI67144223
atp3683
Rp3684
F5007.068
tp3685
a(g1
((lp3686
I16795671
aI541447
atp3687
Rp3688
F5008.668
tp3689
a(g1
((lp3690
I164099
aI16795671
atp3691
Rp3692
F5011.12
tp3693
a(g1
((lp3694
I8423187
aI279045
atp3695
Rp3696
F5011.812
tp3697
a(g1
((lp3698
I295429
aI67127839
atp3699
Rp3700
F5014.516
tp3701
a(g1
((lp3702
I16787479
aI67127839
atp3703
Rp3704
F5015.836
tp3705
a(g1
((lp3706
I1057803
aI67115551
atp3707
Rp3708
F5016.16
tp3709
a(g1
((lp3710
I81922
aI16812055
atp3711
Rp3712
F5017.108
tp3713
a(g1
((lp3714
I268446761
aI69634
atp3715
Rp3716
F5019.16
tp3717
a(g1
((lp3718
I135427
aI67144223
atp3719
Rp3720
F5020.112
tp3721
a(g1
((lp3722
I73730
aI33589533
atp3723
Rp3724
F5020.78
tp3725
a(g1
((lp3726
I73730
aI16795671
atp3727
Rp3728
F5021.476
tp3729
a(g1
((lp3730
I164099
aI67119647
atp3731
Rp3732
F5022.924
tp3733
a(g1
((lp3734
I8406803
aI67127839
atp3735
Rp3736
F5024.652
tp3737
a(g1
((lp3738
I8394515
aI164099
atp3739
Rp3740
F5024.684
tp3741
a(g1
((lp3742
I16787479
aI541447
atp3743
Rp3744
F5025.136
tp3745
a(g1
((lp3746
I164099
aI33573149
atp3747
Rp3748
F5025.524
tp3749
a(g1
((lp3750
I270853
aI33560861
atp3751
Rp3752
F5026.9
tp3753
a(g1
((lp3754
I1065995
aI139523
atp3755
Rp3756
F5027.608
tp3757
a(g1
((lp3758
I8394515
aI67115551
atp3759
Rp3760
F5027.816
tp3761
a(g1
((lp3762
I295429
aI67119647
atp3763
Rp3764
F5027.848
tp3765
a(g1
((lp3766
I268442665
aI139523
atp3767
Rp3768
F5027.976
tp3769
a(g1
((lp3770
I98306
aI16783383
atp3771
Rp3772
F5028.916
tp3773
a(g1
((lp3774
I33573149
aI557831
atp3775
Rp3776
F5029.204
tp3777
a(g1
((lp3778
I279045
aI67115551
atp3779
Rp3780
F5029.468
tp3781
a(g1
((lp3782
I139523
aI1057803
atp3783
Rp3784
F5029.76
tp3785
a(g1
((lp3786
I73730
aI67144223
atp3787
Rp3788
F5029.98
tp3789
a(g1
((lp3790
I33564957
aI541447
atp3791
Rp3792
F5030.456
tp3793
a(g1
((lp3794
I268442665
aI73730
atp3795
Rp3796
F5030.476
tp3797
a(g1
((lp3798
I139523
aI67144223
atp3799
Rp3800
F5033.644
tp3801
a(g1
((lp3802
I67119647
aI16795671
atp3803
Rp3804
F5034.632
tp3805
a(g1
((lp3806
I33564957
aI529159
atp3807
Rp3808
F5036.128
tp3809
a(g1
((lp3810
I67119647
aI541447
atp3811
Rp3812
F5036.292
tp3813
a(g1
((lp3814
I139523
aI16787479
atp3815
Rp3816
F5036.84
tp3817
a(g1
((lp3818
I1065995
aI33573149
atp3819
Rp3820
F5040.436
tp3821
a(g1
((lp3822
I268454953
aI270853
atp3823
Rp3824
F5043.796
tp3825
a(g1
((lp3826
I33573149
aI533255
atp3827
Rp3828
F5045.068
tp3829
a(g1
((lp3830
I98306
aI541447
atp3831
Rp3832
F5046.64
tp3833
a(g1
((lp3834
I8423187
aI139523
atp3835
Rp3836
F5048.548
tp3837
a(g1
((lp3838
I33564957
aI266757
atp3839
Rp3840
F5048.604
tp3841
a(g1
((lp3842
I8398611
aI266757
atp3843
Rp3844
F5048.604
tp3845
a(g1
((lp3846
I1053707
aI33560861
atp3847
Rp3848
F5050.332
tp3849
a(g1
((lp3850
I533255
aI16795671
atp3851
Rp3852
F5052.008
tp3853
a(g1
((lp3854
I98306
aI533255
atp3855
Rp3856
F5052.46
tp3857
a(g1
((lp3858
I8394515
aI135427
atp3859
Rp3860
F5052.504
tp3861
a(g1
((lp3862
I279045
aI16795671
atp3863
Rp3864
F5055.048
tp3865
a(g1
((lp3866
I81922
aI16783383
atp3867
Rp3868
F5055.644
tp3869
a(g1
((lp3870
I67115551
aI541447
atp3871
Rp3872
F5055.82
tp3873
a(g1
((lp3874
I266757
aI67115551
atp3875
Rp3876
F5056.288
tp3877
a(g1
((lp3878
I98306
aI16795671
atp3879
Rp3880
F5058.52
tp3881
a(g1
((lp3882
I135427
aI8398611
atp3883
Rp3884
F5060.796
tp3885
a(g1
((lp3886
I16783383
aI67115551
atp3887
Rp3888
F5062.484
tp3889
a(g1
((lp3890
I164099
aI67115551
atp3891
Rp3892
F5062.496
tp3893
a(g1
((lp3894
I147715
aI16783383
atp3895
Rp3896
F5063.02
tp3897
a(g1
((lp3898
I98306
aI67127839
atp3899
Rp3900
F5063.348
tp3901
a(g1
((lp3902
I69634
aI1082379
atp3903
Rp3904
F5065.444
tp3905
a(g1
((lp3906
I69634
aI16812055
atp3907
Rp3908
F5065.456
tp3909
a(g1
((lp3910
I98306
aI16787479
atp3911
Rp3912
F5066.476
tp3913
a(g1
((lp3914
I33560861
aI266757
atp3915
Rp3916
F5067.812
tp3917
a(g1
((lp3918
I1065995
aI33564957
atp3919
Rp3920
F5069.744
tp3921
a(g1
((lp3922
I8398611
aI164099
atp3923
Rp3924
F5070.148
tp3925
a(g1
((lp3926
I33564957
aI67115551
atp3927
Rp3928
F5071.676
tp3929
a(g1
((lp3930
I98306
aI8398611
atp3931
Rp3932
F5072.048
tp3933
a(g1
((lp3934
I147715
aI295429
atp3935
Rp3936
F5072.32
tp3937
a(g1
((lp3938
I541447
aI67144223
atp3939
Rp3940
F5073.704
tp3941
a(g1
((lp3942
I268442665
aI147715
atp3943
Rp3944
F5073.776
tp3945
a(g1
((lp3946
I98306
aI1053707
atp3947
Rp3948
F5074.112
tp3949
a(g1
((lp3950
I33573149
aI279045
atp3951
Rp3952
F5074.344
tp3953
a(g1
((lp3954
I16783383
aI533255
atp3955
Rp3956
F5074.716
tp3957
a(g1
((lp3958
I1053707
aI33564957
atp3959
Rp3960
F5075.596
tp3961
a(g1
((lp3962
I147715
aI557831
atp3963
Rp3964
F5076.244
tp3965
a(g1
((lp3966
I8394515
aI139523
atp3967
Rp3968
F5077.22
tp3969
a(g1
((lp3970
I8398611
aI279045
atp3971
Rp3972
F5078.68
tp3973
a(g1
((lp3974
I81922
aI8398611
atp3975
Rp3976
F5078.768
tp3977
a(g1
((lp3978
I8406803
aI147715
atp3979
Rp3980
F5078.964
tp3981
a(g1
((lp3982
I279045
aI67119647
atp3983
Rp3984
F5079.04
tp3985
a(g1
((lp3986
I69634
aI1057803
atp3987
Rp3988
F5079.612
tp3989
a(g1
((lp3990
I1065995
aI33560861
atp3991
Rp3992
F5080.508
tp3993
a(g1
((lp3994
I164099
aI16787479
atp3995
Rp3996
F5081.548
tp3997
a(g1
((lp3998
I164099
aI279045
atp3999
Rp4000
F5082.856
tp4001
a(g1
((lp4002
I266757
aI16787479
atp4003
Rp4004
F5083.408
tp4005
a(g1
((lp4006
I8406803
aI266757
atp4007
Rp4008
F5084.436
tp4009
a(g1
((lp4010
I69634
aI8394515
atp4011
Rp4012
F5085.016
tp4013
a(g1
((lp4014
I81922
aI8394515
atp4015
Rp4016
F5087.616
tp4017
a(g1
((lp4018
I33573149
aI67127839
atp4019
Rp4020
F5087.8
tp4021
a(g1
((lp4022
I73730
aI1082379
atp4023
Rp4024
F5088.62
tp4025
a(g1
((lp4026
I81922
aI33589533
atp4027
Rp4028
F5091.804
tp4029
a(g1
((lp4030
I33560861
aI533255
atp4031
Rp4032
F5092.476
tp4033
a(g1
((lp4034
I279045
aI16783383
atp4035
Rp4036
F5093.128
tp4037
a(g1
((lp4038
I268442665
aI135427
atp4039
Rp4040
F5093.848
tp4041
a(g1
((lp4042
I268442665
aI81922
atp4043
Rp4044
F5094.392
tp4045
a(g1
((lp4046
I73730
aI8423187
atp4047
Rp4048
F5098.66
tp4049
a(g1
((lp4050
I73730
aI33564957
atp4051
Rp4052
F5100.064
tp4053
a(g1
((lp4054
I69634
aI8406803
atp4055
Rp4056
F5102.06
tp4057
a(g1
((lp4058
I1065995
aI164099
atp4059
Rp4060
F5102.156
tp4061
a(g1
((lp4062
I69634
aI16783383
atp4063
Rp4064
F5102.172
tp4065
a(g1
((lp4066
I98306
aI33573149
atp4067
Rp4068
F5105.336
tp4069
a(g1
((lp4070
I98306
aI1065995
atp4071
Rp4072
F5106.692
tp4073
a(g1
((lp4074
I139523
aI33573149
atp4075
Rp4076
F5106.72
tp4077
a(g1
((lp4078
I139523
aI16795671
atp4079
Rp4080
F5108.12
tp4081
a(g1
((lp4082
I81922
aI16795671
atp4083
Rp4084
F5108.768
tp4085
a(g1
((lp4086
I8394515
aI270853
atp4087
Rp4088
F5111.22
tp4089
a(g1
((lp4090
I135427
aI557831
atp4091
Rp4092
F5111.752
tp4093
a(g1
((lp4094
I135427
aI529159
atp4095
Rp4096
F5114.248
tp4097
a(g1
((lp4098
I81922
aI529159
atp4099
Rp4100
F5116.248
tp4101
a(g1
((lp4102
I98306
aI33564957
atp4103
Rp4104
F5116.448
tp4105
a(g1
((lp4106
I270853
aI67127839
atp4107
Rp4108
F5117.604
tp4109
a(g1
((lp4110
I8394515
aI266757
atp4111
Rp4112
F5119.62
tp4113
a(g1
((lp4114
I98306
aI8406803
atp4115
Rp4116
F5122.844
tp4117
a(g1
((lp4118
I266757
aI67119647
atp4119
Rp4120
F5123.416
tp4121
a(g1
((lp4122
I8406803
aI270853
atp4123
Rp4124
F5124.712
tp4125
a(g1
((lp4126
I16783383
aI541447
atp4127
Rp4128
F5127.204
tp4129
a(g1
((lp4130
I73730
aI295429
atp4131
Rp4132
F5127.684
tp4133
a(g1
((lp4134
I73730
aI533255
atp4135
Rp4136
F5128.596
tp4137
a(g1
((lp4138
I139523
aI67119647
atp4139
Rp4140
F5130.02
tp4141
a(g1
((lp4142
I268454953
aI135427
atp4143
Rp4144
F5130.264
tp4145
a(g1
((lp4146
I33573149
aI266757
atp4147
Rp4148
F5131.208
tp4149
a(g1
((lp4150
I73730
aI557831
atp4151
Rp4152
F5131.476
tp4153
a(g1
((lp4154
I139523
aI1053707
atp4155
Rp4156
F5131.692
tp4157
a(g1
((lp4158
I69634
aI16787479
atp4159
Rp4160
F5133.556
tp4161
a(g1
((lp4162
I69634
aI67119647
atp4163
Rp4164
F5139.096
tp4165
a(g1
((lp4166
I8394515
aI279045
atp4167
Rp4168
F5139.22
tp4169
a(g1
((lp4170
I1053707
aI147715
atp4171
Rp4172
F5140.372
tp4173
a(g1
((lp4174
I270853
aI67115551
atp4175
Rp4176
F5140.728
tp4177
a(g1
((lp4178
I147715
aI67127839
atp4179
Rp4180
F5142.696
tp4181
a(g1
((lp4182
I266757
aI67127839
atp4183
Rp4184
F5145.912
tp4185
a(g1
((lp4186
I98306
aI529159
atp4187
Rp4188
F5149.888
tp4189
a(g1
((lp4190
I33564957
aI270853
atp4191
Rp4192
F5150.528
tp4193
a(g1
((lp4194
I147715
aI67115551
atp4195
Rp4196
F5151.144
tp4197
a(g1
((lp4198
I266757
aI16795671
atp4199
Rp4200
F5151.776
tp4201
a(g1
((lp4202
I69634
aI67127839
atp4203
Rp4204
F5152.6
tp4205
a(g1
((lp4206
I135427
aI16795671
atp4207
Rp4208
F5155.132
tp4209
a(g1
((lp4210
I135427
aI295429
atp4211
Rp4212
F5158.3
tp4213
a(g1
((lp4214
I98306
aI67119647
atp4215
Rp4216
F5158.616
tp4217
a(g1
((lp4218
I147715
aI16795671
atp4219
Rp4220
F5160.624
tp4221
a(g1
((lp4222
I73730
aI8394515
atp4223
Rp4224
F5161.668
tp4225
a(g1
((lp4226
I139523
aI557831
atp4227
Rp4228
F5161.7
tp4229
a(g1
((lp4230
I147715
aI16787479
atp4231
Rp4232
F5161.888
tp4233
a(g1
((lp4234
I147715
aI33573149
atp4235
Rp4236
F5165.448
tp4237
a(g1
((lp4238
I147715
aI33589533
atp4239
Rp4240
F5166.324
tp4241
a(g1
((lp4242
I268454953
aI69634
atp4243
Rp4244
F5167.324
tp4245
a(g1
((lp4246
I135427
aI33564957
atp4247
Rp4248
F5174.872
tp4249
a(g1
((lp4250
I147715
aI529159
atp4251
Rp4252
F5176.488
tp4253
a(g1
((lp4254
I81922
aI8406803
atp4255
Rp4256
F5178.012
tp4257
a(g1
((lp4258
I69634
aI164099
atp4259
Rp4260
F5178.408
tp4261
a(g1
((lp4262
I164099
aI266757
atp4263
Rp4264
F5182.5
tp4265
a(g1
((lp4266
I69634
aI557831
atp4267
Rp4268
F5182.82
tp4269
a(g1
((lp4270
I1053707
aI135427
atp4271
Rp4272
F5183.592
tp4273
a(g1
((lp4274
I1065995
aI135427
atp4275
Rp4276
F5185.792
tp4277
a(g1
((lp4278
I164099
aI533255
atp4279
Rp4280
F5187.816
tp4281
a(g1
((lp4282
I81922
aI16787479
atp4283
Rp4284
F5188.0
tp4285
a(g1
((lp4286
I81922
aI541447
atp4287
Rp4288
F5188.028
tp4289
a(g1
((lp4290
I98306
aI266757
atp4291
Rp4292
F5190.88
tp4293
a(g1
((lp4294
I98306
aI270853
atp4295
Rp4296
F5193.78
tp4297
a(g1
((lp4298
I147715
aI67144223
atp4299
Rp4300
F5195.188
tp4301
a(g1
((lp4302
I81922
aI1053707
atp4303
Rp4304
F5197.54
tp4305
a(g1
((lp4306
I139523
aI16783383
atp4307
Rp4308
F5197.672
tp4309
a(g1
((lp4310
I8406803
aI135427
atp4311
Rp4312
F5204.996
tp4313
a(g1
((lp4314
I1057803
aI147715
atp4315
Rp4316
F5207.044
tp4317
a(g1
((lp4318
I98306
aI279045
atp4319
Rp4320
F5207.404
tp4321
a(g1
((lp4322
I135427
aI16787479
atp4323
Rp4324
F5207.556
tp4325
a(g1
((lp4326
I268446761
aI135427
atp4327
Rp4328
F5208.3
tp4329
a(g1
((lp4330
I73730
aI33560861
atp4331
Rp4332
F5208.732
tp4333
a(g1
((lp4334
I33564957
aI279045
atp4335
Rp4336
F5211.1
tp4337
a(g1
((lp4338
I135427
aI266757
atp4339
Rp4340
F5211.204
tp4341
a(g1
((lp4342
I73730
aI1053707
atp4343
Rp4344
F5211.864
tp4345
a(g1
((lp4346
I164099
aI541447
atp4347
Rp4348
F5212.372
tp4349
a(g1
((lp4350
I81922
aI295429
atp4351
Rp4352
F5213.324
tp4353
a(g1
((lp4354
I73730
aI1065995
atp4355
Rp4356
F5220.02
tp4357
a(g1
((lp4358
I81922
aI33564957
atp4359
Rp4360
F5220.648
tp4361
a(g1
((lp4362
I73730
aI33573149
atp4363
Rp4364
F5222.52
tp4365
a(g1
((lp4366
I73730
aI270853
atp4367
Rp4368
F5222.544
tp4369
a(g1
((lp4370
I69634
aI33560861
atp4371
Rp4372
F5222.752
tp4373
a(g1
((lp4374
I81922
aI67119647
atp4375
Rp4376
F5225.252
tp4377
a(g1
((lp4378
I147715
aI533255
atp4379
Rp4380
F5225.504
tp4381
a(g1
((lp4382
I147715
aI541447
atp4383
Rp4384
F5225.684
tp4385
a(g1
((lp4386
I98306
aI139523
atp4387
Rp4388
F5230.3
tp4389
a(g1
((lp4390
I135427
aI1057803
atp4391
Rp4392
F5231.984
tp4393
a(g1
((lp4394
I33560861
aI279045
atp4395
Rp4396
F5234.576
tp4397
a(g1
((lp4398
I135427
aI16783383
atp4399
Rp4400
F5236.964
tp4401
a(g1
((lp4402
I135427
aI67119647
atp4403
Rp4404
F5240.88
tp4405
a(g1
((lp4406
I139523
aI33560861
atp4407
Rp4408
F5244.628
tp4409
a(g1
((lp4410
I69634
aI33573149
atp4411
Rp4412
F5245.54
tp4413
a(g1
((lp4414
I81922
aI67144223
atp4415
Rp4416
F5245.7
tp4417
a(g1
((lp4418
I279045
aI67127839
atp4419
Rp4420
F5245.74
tp4421
a(g1
((lp4422
I73730
aI16783383
atp4423
Rp4424
F5247.056
tp4425
a(g1
((lp4426
I135427
aI33560861
atp4427
Rp4428
F5250.416
tp4429
a(g1
((lp4430
I73730
aI67127839
atp4431
Rp4432
F5251.756
tp4433
a(g1
((lp4434
I139523
aI533255
atp4435
Rp4436
F5252.096
tp4437
a(g1
((lp4438
I147715
aI67119647
atp4439
Rp4440
F5253.928
tp4441
a(g1
((lp4442
I81922
aI33560861
atp4443
Rp4444
F5256.316
tp4445
a(g1
((lp4446
I139523
aI67115551
atp4447
Rp4448
F5258.992
tp4449
a(g1
((lp4450
I8398611
aI147715
atp4451
Rp4452
F5259.636
tp4453
a(g1
((lp4454
I147715
aI33560861
atp4455
Rp4456
F5263.932
tp4457
a(g1
((lp4458
I98306
aI135427
atp4459
Rp4460
F5265.736
tp4461
a(g1
((lp4462
I81922
aI67127839
atp4463
Rp4464
F5270.488
tp4465
a(g1
((lp4466
I81922
aI557831
atp4467
Rp4468
F5275.996
tp4469
a(g1
((lp4470
I73730
aI164099
atp4471
Rp4472
F5277.444
tp4473
a(g1
((lp4474
I81922
aI67115551
atp4475
Rp4476
F5277.636
tp4477
a(g1
((lp4478
I81922
aI533255
atp4479
Rp4480
F5277.976
tp4481
a(g1
((lp4482
I135427
aI33573149
atp4483
Rp4484
F5278.144
tp4485
a(g1
((lp4486
I139523
aI270853
atp4487
Rp4488
F5284.328
tp4489
a(g1
((lp4490
I135427
aI533255
atp4491
Rp4492
F5286.824
tp4493
a(g1
((lp4494
I139523
aI541447
atp4495
Rp4496
F5287.196
tp4497
a(g1
((lp4498
I69634
aI16795671
atp4499
Rp4500
F5287.62
tp4501
a(g1
((lp4502
I8406803
aI139523
atp4503
Rp4504
F5288.3
tp4505
a(g1
((lp4506
I164099
aI270853
atp4507
Rp4508
F5289.376
tp4509
a(g1
((lp4510
I135427
aI67127839
atp4511
Rp4512
F5289.38
tp4513
a(g1
((lp4514
I73730
aI266757
atp4515
Rp4516
F5292.488
tp4517
a(g1
((lp4518
I69634
aI67115551
atp4519
Rp4520
F5297.144
tp4521
a(g1
((lp4522
I73730
aI67115551
atp4523
Rp4524
F5297.708
tp4525
a(g1
((lp4526
I73730
aI541447
atp4527
Rp4528
F5302.42
tp4529
a(g1
((lp4530
I69634
aI8398611
atp4531
Rp4532
F5307.876
tp4533
a(g1
((lp4534
I81922
aI33573149
atp4535
Rp4536
F5308.856
tp4537
a(g1
((lp4538
I147715
aI33564957
atp4539
Rp4540
F5311.86
tp4541
a(g1
((lp4542
I1065995
aI147715
atp4543
Rp4544
F5316.644
tp4545
a(g1
((lp4546
I69634
aI33564957
atp4547
Rp4548
F5325.416
tp4549
a(g1
((lp4550
I98306
aI147715
atp4551
Rp4552
F5326.5
tp4553
a(g1
((lp4554
I81922
aI1065995
atp4555
Rp4556
F5326.72
tp4557
a(g1
((lp4558
I69634
aI1053707
atp4559
Rp4560
F5327.248
tp4561
a(g1
((lp4562
I69634
aI533255
atp4563
Rp4564
F5333.424
tp4565
a(g1
((lp4566
I73730
aI529159
atp4567
Rp4568
F5334.588
tp4569
a(g1
((lp4570
I69634
aI1065995
atp4571
Rp4572
F5335.888
tp4573
a(g1
((lp4574
I135427
aI67115551
atp4575
Rp4576
F5340.548
tp4577
a(g1
((lp4578
I139523
aI295429
atp4579
Rp4580
F5341.552
tp4581
a(g1
((lp4582
I81922
aI1057803
atp4583
Rp4584
F5344.408
tp4585
a(g1
((lp4586
I69634
aI295429
atp4587
Rp4588
F5347.816
tp4589
a(g1
((lp4590
I69634
aI541447
atp4591
Rp4592
F5358.78
tp4593
a(g1
((lp4594
I81922
aI164099
atp4595
Rp4596
F5365.896
tp4597
a(g1
((lp4598
I73730
aI279045
atp4599
Rp4600
F5366.92
tp4601
a(g1
((lp4602
I139523
aI266757
atp4603
Rp4604
F5367.58
tp4605
a(g1
((lp4606
I147715
aI270853
atp4607
Rp4608
F5367.6
tp4609
a(g1
((lp4610
I69634
aI139523
atp4611
Rp4612
F5368.252
tp4613
a(g1
((lp4614
I139523
aI67127839
atp4615
Rp4616
F5368.688
tp4617
a(g1
((lp4618
I139523
aI529159
atp4619
Rp4620
F5378.284
tp4621
a(g1
((lp4622
I69634
aI529159
atp4623
Rp4624
F5388.748
tp4625
a(g1
((lp4626
I135427
aI270853
atp4627
Rp4628
F5395.032
tp4629
a(g1
((lp4630
I73730
aI139523
atp4631
Rp4632
F5404.304
tp4633
a(g1
((lp4634
I69634
aI266757
atp4635
Rp4636
F5409.656
tp4637
a(g1
((lp4638
I147715
aI279045
atp4639
Rp4640
F5410.744
tp4641
a(g1
((lp4642
I81922
aI147715
atp4643
Rp4644
F5414.888
tp4645
a(g1
((lp4646
I69634
aI270853
atp4647
Rp4648
F5424.424
tp4649
a(g1
((lp4650
I81922
aI279045
atp4651
Rp4652
F5431.276
tp4653
a(g1
((lp4654
I139523
aI279045
atp4655
Rp4656
F5435.492
tp4657
a(g1
((lp4658
I135427
aI541447
atp4659
Rp4660
F5437.236
tp4661
a(g1
((lp4662
I81922
aI266757
atp4663
Rp4664
F5437.72
tp4665
a(g1
((lp4666
I135427
aI279045
atp4667
Rp4668
F5449.032
tp4669
a(g1
((lp4670
I69634
aI279045
atp4671
Rp4672
F5469.98
tp4673
a(g1
((lp4674
I147715
aI266757
atp4675
Rp4676
F5480.284
tp4677
a(g1
((lp4678
I81922
aI270853
atp4679
Rp4680
F5510.48
tp4681
a(g1
((lp4682
I73730
aI147715
atp4683
Rp4684
F5521.948
tp4685
a(g1
((lp4686
I81922
aI139523
atp4687
Rp4688
F5523.32
tp4689
a(g1
((lp4690
I81922
aI135427
atp4691
Rp4692
F5523.56
tp4693
a(g1
((lp4694
I69634
aI147715
atp4695
Rp4696
F5570.28
tp4697
a(g1
((lp4698
I69634
aI135427
atp4699
Rp4700
F5570.624
tp4701
a(g1
((lp4702
I73730
aI135427
atp4703
Rp4704
F5586.232
tp4705
a.