(lp0
(c__builtin__
frozenset
p1
((lp2
I81922
aI69634
atp3
Rp4
I155
tp5
a(g1
((lp6
I268442665
aI268454953
atp7
Rp8
I174
tp9
a(g1
((lp10
I268442665
aI268471337
atp11
Rp12
I174
tp13
a(g1
((lp14
I268454953
aI268471337
atp15
Rp16
I174
tp17
a(g1
((lp18
I4228625
aI4199953
atp19
Rp20
I245
tp21
a(g1
((lp22
I4228625
aI4212241
atp23
Rp24
I245
tp25
a(g1
((lp26
I4199953
aI4212241
atp27
Rp28
I245
tp29
a(g1
((lp30
I268442665
aI81922
atp31
Rp32
I301
tp33
a(g1
((lp34
I268454953
aI81922
atp35
Rp36
I301
tp37
a(g1
((lp38
I268471337
aI81922
atp39
Rp40
I301
tp41
a(g1
((lp42
I268442665
aI69634
atp43
Rp44
I301
tp45
a(g1
((lp46
I268454953
aI69634
atp47
Rp48
I301
tp49
a(g1
((lp50
I268471337
aI69634
atp51
Rp52
I301
tp53
a(g1
((lp54
I4228625
aI81922
atp55
Rp56
I310
tp57
a(g1
((lp58
I4228625
aI69634
atp59
Rp60
I310
tp61
a(g1
((lp62
I4199953
aI81922
atp63
Rp64
I310
tp65
a(g1
((lp66
I4212241
aI81922
atp67
Rp68
I310
tp69
a(g1
((lp70
I4199953
aI69634
atp71
Rp72
I310
tp73
a(g1
((lp74
I4212241
aI69634
atp75
Rp76
I310
tp77
a(g1
((lp78
I134228773
aI67119647
atp79
Rp80
I349
tp81
a(g1
((lp82
I33564957
aI134228773
atp83
Rp84
I384
tp85
a(g1
((lp86
I134228773
aI16787479
atp87
Rp88
I411
tp89
a(g1
((lp90
I8398611
aI134228773
atp91
Rp92
I431
tp93
a(g1
((lp94
I2106637
aI134228773
atp95
Rp96
I450
tp97
a(g1
((lp98
I1057803
aI134228773
atp99
Rp100
I453
tp101
a(g1
((lp102
I134228773
aI533255
atp103
Rp104
I456
tp105
a(g1
((lp106
I270853
aI134228773
atp107
Rp108
I458
tp109
a(g1
((lp110
I139523
aI134228773
atp111
Rp112
I459
tp113
a(g1
((lp114
I33564957
aI67119647
atp115
Rp116
I502
tp117
a(g1
((lp118
I16787479
aI67119647
atp119
Rp120
I528
tp121
a(g1
((lp122
I8398611
aI67119647
atp123
Rp124
I548
tp125
a(g1
((lp126
I2106637
aI67119647
atp127
Rp128
I567
tp129
a(g1
((lp130
I1057803
aI67119647
atp131
Rp132
I571
tp133
a(g1
((lp134
I533255
aI67119647
atp135
Rp136
I574
tp137
a(g1
((lp138
I270853
aI67119647
atp139
Rp140
I575
tp141
a(g1
((lp142
I139523
aI67119647
atp143
Rp144
I576
tp145
a(g1
((lp146
I33564957
aI16787479
atp147
Rp148
I610
tp149
a(g1
((lp150
I8398611
aI33564957
atp151
Rp152
I630
tp153
a(g1
((lp154
I33564957
aI2106637
atp155
Rp156
I648
tp157
a(g1
((lp158
I1057803
aI33564957
atp159
Rp160
I652
tp161
a(g1
((lp162
I33564957
aI533255
atp163
Rp164
I655
tp165
a(g1
((lp166
I33564957
aI270853
atp167
Rp168
I656
tp169
a(g1
((lp170
I139523
aI33564957
atp171
Rp172
I657
tp173
a(g1
((lp174
I8398611
aI16787479
atp175
Rp176
I683
tp177
a(g1
((lp178
I2106637
aI16787479
atp179
Rp180
I702
tp181
a(g1
((lp182
I1057803
aI16787479
atp183
Rp184
I705
tp185
a(g1
((lp186
I16787479
aI533255
atp187
Rp188
I708
tp189
a(g1
((lp190
I270853
aI16787479
atp191
Rp192
I710
tp193
a(g1
((lp194
I139523
aI16787479
atp195
Rp196
I711
tp197
a(g1
((lp198
I8398611
aI2106637
atp199
Rp200
I735
tp201
a(g1
((lp202
I1057803
aI8398611
atp203
Rp204
I739
tp205
a(g1
((lp206
I8398611
aI533255
atp207
Rp208
I742
tp209
a(g1
((lp210
I8398611
aI270853
atp211
Rp212
I743
tp213
a(g1
((lp214
I139523
aI8398611
atp215
Rp216
I744
tp217
a(g1
((lp218
I270853
aI533255
atp219
Rp220
I763
tp221
a(g1
((lp222
I139523
aI533255
atp223
Rp224
I764
tp225
a(g1
((lp226
I139523
aI270853
atp227
Rp228
I765
tp229
a(g1
((lp230
I1057803
aI2106637
atp231
Rp232
I767
tp233
a(g1
((lp234
I2106637
aI533255
atp235
Rp236
I770
tp237
a(g1
((lp238
I270853
aI2106637
atp239
Rp240
I772
tp241
a(g1
((lp242
I139523
aI2106637
atp243
Rp244
I773
tp245
a(g1
((lp246
I1057803
aI533255
atp247
Rp248
I776
tp249
a(g1
((lp250
I1057803
aI270853
atp251
Rp252
I777
tp253
a(g1
((lp254
I1057803
aI139523
atp255
Rp256
I778
tp257
a(g1
((lp258
I81922
aI134228773
atp259
Rp260
I1559
tp261
a(g1
((lp262
I69634
aI134228773
atp263
Rp264
I1559
tp265
a(g1
((lp266
I81922
aI67119647
atp267
Rp268
I1580
tp269
a(g1
((lp270
I69634
aI67119647
atp271
Rp272
I1580
tp273
a(g1
((lp274
I81922
aI33564957
atp275
Rp276
I1594
tp277
a(g1
((lp278
I69634
aI33564957
atp279
Rp280
I1594
tp281
a(g1
((lp282
I81922
aI16787479
atp283
Rp284
I1603
tp285
a(g1
((lp286
I69634
aI16787479
atp287
Rp288
I1603
tp289
a(g1
((lp290
I81922
aI8398611
atp291
Rp292
I1609
tp293
a(g1
((lp294
I69634
aI8398611
atp295
Rp296
I1609
tp297
a(g1
((lp298
I81922
aI2106637
atp299
Rp300
I1614
tp301
a(g1
((lp302
I69634
aI2106637
atp303
Rp304
I1614
tp305
a(g1
((lp306
I81922
aI533255
atp307
Rp308
I1615
tp309
a(g1
((lp310
I81922
aI1057803
atp311
Rp312
I1615
tp313
a(g1
((lp314
I69634
aI533255
atp315
Rp316
I1615
tp317
a(g1
((lp318
I69634
aI1057803
atp319
Rp320
I1615
tp321
a(g1
((lp322
I81922
aI270853
atp323
Rp324
I1616
tp325
a(g1
((lp326
I69634
aI270853
atp327
Rp328
I1616
tp329
a(g1
((lp330
I81922
aI139523
atp331
Rp332
I1616
tp333
a(g1
((lp334
I69634
aI139523
atp335
Rp336
I1616
tp337
a(g1
((lp338
I81922
aI134236965
atp339
Rp340
I1944
tp341
a(g1
((lp342
I69634
aI134236965
atp343
Rp344
I1944
tp345
a(g1
((lp346
I81922
aI134253349
atp347
Rp348
I1944
tp349
a(g1
((lp350
I69634
aI134253349
atp351
Rp352
I1944
tp353
a(g1
((lp354
I81922
aI134224677
atp355
Rp356
I1944
tp357
a(g1
((lp358
I69634
aI134224677
atp359
Rp360
I1944
tp361
a(g1
((lp362
I81922
aI33573149
atp363
Rp364
I1945
tp365
a(g1
((lp366
I69634
aI33573149
atp367
Rp368
I1945
tp369
a(g1
((lp370
I81922
aI33560861
atp371
Rp372
I1945
tp373
a(g1
((lp374
I69634
aI33560861
atp375
Rp376
I1945
tp377
a(g1
((lp378
I81922
aI67127839
atp379
Rp380
I1945
tp381
a(g1
((lp382
I69634
aI67127839
atp383
Rp384
I1945
tp385
a(g1
((lp386
I81922
aI67115551
atp387
Rp388
I1945
tp389
a(g1
((lp390
I69634
aI67115551
atp391
Rp392
I1945
tp393
a(g1
((lp394
I81922
aI33589533
atp395
Rp396
I1945
tp397
a(g1
((lp398
I81922
aI67144223
atp399
Rp400
I1945
tp401
a(g1
((lp402
I69634
aI33589533
atp403
Rp404
I1945
tp405
a(g1
((lp406
I69634
aI67144223
atp407
Rp408
I1945
tp409
a(g1
((lp410
I81922
aI16812055
atp411
Rp412
I1946
tp413
a(g1
((lp414
I81922
aI16783383
atp415
Rp416
I1946
tp417
a(g1
((lp418
I81922
aI16795671
atp419
Rp420
I1946
tp421
a(g1
((lp422
I69634
aI16812055
atp423
Rp424
I1946
tp425
a(g1
((lp426
I69634
aI16783383
atp427
Rp428
I1946
tp429
a(g1
((lp430
I69634
aI16795671
atp431
Rp432
I1946
tp433
a(g1
((lp434
I81922
aI541447
atp435
Rp436
I1947
tp437
a(g1
((lp438
I69634
aI541447
atp439
Rp440
I1947
tp441
a(g1
((lp442
I81922
aI266757
atp443
Rp444
I1947
tp445
a(g1
((lp446
I69634
aI266757
atp447
Rp448
I1947
tp449
a(g1
((lp450
I81922
aI529159
atp451
Rp452
I1947
tp453
a(g1
((lp454
I69634
aI529159
atp455
Rp456
I1947
tp457
a(g1
((lp458
I81922
aI147715
atp459
Rp460
I1947
tp461
a(g1
((lp462
I69634
aI147715
atp463
Rp464
I1947
tp465
a(g1
((lp466
I81922
aI8423187
atp467
Rp468
I1947
tp469
a(g1
((lp470
I69634
aI8423187
atp471
Rp472
I1947
tp473
a(g1
((lp474
I81922
aI1082379
atp475
Rp476
I1947
tp477
a(g1
((lp478
I81922
aI557831
atp479
Rp480
I1947
tp481
a(g1
((lp482
I81922
aI8406803
atp483
Rp484
I1947
tp485
a(g1
((lp486
I81922
aI164099
atp487
Rp488
I1947
tp489
a(g1
((lp490
I81922
aI2131213
atp491
Rp492
I1947
tp493
a(g1
((lp494
I81922
aI8394515
atp495
Rp496
I1947
tp497
a(g1
((lp498
I81922
aI2114829
atp499
Rp500
I1947
tp501
a(g1
((lp502
I81922
aI135427
atp503
Rp504
I1947
tp505
a(g1
((lp506
I81922
aI295429
atp507
Rp508
I1947
tp509
a(g1
((lp510
I81922
aI1053707
atp511
Rp512
I1947
tp513
a(g1
((lp514
I81922
aI1065995
atp515
Rp516
I1947
tp517
a(g1
((lp518
I81922
aI279045
atp519
Rp520
I1947
tp521
a(g1
((lp522
I81922
aI2102541
atp523
Rp524
I1947
tp525
a(g1
((lp526
I69634
aI1082379
atp527
Rp528
I1947
tp529
a(g1
((lp530
I69634
aI557831
atp531
Rp532
I1947
tp533
a(g1
((lp534
I69634
aI8406803
atp535
Rp536
I1947
tp537
a(g1
((lp538
I69634
aI164099
atp539
Rp540
I1947
tp541
a(g1
((lp542
I69634
aI2131213
atp543
Rp544
I1947
tp545
a(g1
((lp546
I69634
aI8394515
atp547
Rp548
I1947
tp549
a(g1
((lp550
I69634
aI2114829
atp551
Rp552
I1947
tp553
a(g1
((lp554
I69634
aI135427
atp555
Rp556
I1947
tp557
a(g1
((lp558
I69634
aI295429
atp559
Rp560
I1947
tp561
a(g1
((lp562
I69634
aI1053707
atp563
Rp564
I1947
tp565
a(g1
((lp566
I69634
aI1065995
atp567
Rp568
I1947
tp569
a(g1
((lp570
I69634
aI279045
atp571
Rp572
I1947
tp573
a(g1
((lp574
I69634
aI2102541
atp575
Rp576
I1947
tp577
a(g1
((lp578
I268442665
aI134228773
atp579
Rp580
I1951
tp581
a(g1
((lp582
I268454953
aI134228773
atp583
Rp584
I1951
tp585
a(g1
((lp586
I268471337
aI134228773
atp587
Rp588
I1951
tp589
a(g1
((lp590
I268442665
aI67119647
atp591
Rp592
I1973
tp593
a(g1
((lp594
I268454953
aI67119647
atp595
Rp596
I1973
tp597
a(g1
((lp598
I268471337
aI67119647
atp599
Rp600
I1973
tp601
a(g1
((lp602
I268442665
aI33564957
atp603
Rp604
I1988
tp605
a(g1
((lp606
I268454953
aI33564957
atp607
Rp608
I1988
tp609
a(g1
((lp610
I268471337
aI33564957
atp611
Rp612
I1988
tp613
a(g1
((lp614
I268442665
aI16787479
atp615
Rp616
I1998
tp617
a(g1
((lp618
I268454953
aI16787479
atp619
Rp620
I1998
tp621
a(g1
((lp622
I268471337
aI16787479
atp623
Rp624
I1998
tp625
a(g1
((lp626
I268442665
aI8398611
atp627
Rp628
I2004
tp629
a(g1
((lp630
I268454953
aI8398611
atp631
Rp632
I2004
tp633
a(g1
((lp634
I268471337
aI8398611
atp635
Rp636
I2004
tp637
a(g1
((lp638
I268442665
aI2106637
atp639
Rp640
I2010
tp641
a(g1
((lp642
I268454953
aI2106637
atp643
Rp644
I2010
tp645
a(g1
((lp646
I268471337
aI2106637
atp647
Rp648
I2010
tp649
a(g1
((lp650
I268442665
aI1057803
atp651
Rp652
I2012
tp653
a(g1
((lp654
I268454953
aI1057803
atp655
Rp656
I2012
tp657
a(g1
((lp658
I268471337
aI1057803
atp659
Rp660
I2012
tp661
a(g1
((lp662
I268442665
aI533255
atp663
Rp664
I2013
tp665
a(g1
((lp666
I268454953
aI533255
atp667
Rp668
I2013
tp669
a(g1
((lp670
I268471337
aI533255
atp671
Rp672
I2013
tp673
a(g1
((lp674
I268442665
aI270853
atp675
Rp676
I2014
tp677
a(g1
((lp678
I268454953
aI270853
atp679
Rp680
I2014
tp681
a(g1
((lp682
I268471337
aI270853
atp683
Rp684
I2014
tp685
a(g1
((lp686
I268442665
aI139523
atp687
Rp688
I2015
tp689
a(g1
((lp690
I268454953
aI139523
atp691
Rp692
I2015
tp693
a(g1
((lp694
I268471337
aI139523
atp695
Rp696
I2015
tp697
a(g1
((lp698
I134236965
aI134228773
atp699
Rp700
I2030
tp701
a(g1
((lp702
I134253349
aI134228773
atp703
Rp704
I2030
tp705
a(g1
((lp706
I134224677
aI134228773
atp707
Rp708
I2030
tp709
a(g1
((lp710
I67127839
aI67119647
atp711
Rp712
I2124
tp713
a(g1
((lp714
I67115551
aI67119647
atp715
Rp716
I2124
tp717
a(g1
((lp718
I67144223
aI67119647
atp719
Rp720
I2124
tp721
a(g1
((lp722
I33564957
aI33573149
atp723
Rp724
I2204
tp725
a(g1
((lp726
I33564957
aI33560861
atp727
Rp728
I2204
tp729
a(g1
((lp730
I33564957
aI33589533
atp731
Rp732
I2204
tp733
a(g1
((lp734
I4228625
aI268442665
atp735
Rp736
I2229
tp737
a(g1
((lp738
I4228625
aI268454953
atp739
Rp740
I2229
tp741
a(g1
((lp742
I4228625
aI268471337
atp743
Rp744
I2229
tp745
a(g1
((lp746
I268442665
aI4199953
atp747
Rp748
I2229
tp749
a(g1
((lp750
I268442665
aI4212241
atp751
Rp752
I2229
tp753
a(g1
((lp754
I268454953
aI4199953
atp755
Rp756
I2229
tp757
a(g1
((lp758
I268454953
aI4212241
atp759
Rp760
I2229
tp761
a(g1
((lp762
I268471337
aI4199953
atp763
Rp764
I2229
tp765
a(g1
((lp766
I268471337
aI4212241
atp767
Rp768
I2229
tp769
a(g1
((lp770
I16787479
aI16812055
atp771
Rp772
I2271
tp773
a(g1
((lp774
I16783383
aI16787479
atp775
Rp776
I2271
tp777
a(g1
((lp778
I16795671
aI16787479
atp779
Rp780
I2271
tp781
a(g1
((lp782
I4228625
aI134228773
atp783
Rp784
I2295
tp785
a(g1
((lp786
I4199953
aI134228773
atp787
Rp788
I2295
tp789
a(g1
((lp790
I4212241
aI134228773
atp791
Rp792
I2295
tp793
a(g1
((lp794
I4228625
aI67119647
atp795
Rp796
I2323
tp797
a(g1
((lp798
I4199953
aI67119647
atp799
Rp800
I2323
tp801
a(g1
((lp802
I4212241
aI67119647
atp803
Rp804
I2323
tp805
a(g1
((lp806
I8398611
aI8423187
atp807
Rp808
I2328
tp809
a(g1
((lp810
I8406803
aI8398611
atp811
Rp812
I2328
tp813
a(g1
((lp814
I8394515
aI8398611
atp815
Rp816
I2328
tp817
a(g1
((lp818
I4228625
aI33564957
atp819
Rp820
I2343
tp821
a(g1
((lp822
I4199953
aI33564957
atp823
Rp824
I2343
tp825
a(g1
((lp826
I4212241
aI33564957
atp827
Rp828
I2343
tp829
a(g1
((lp830
I4228625
aI16787479
atp831
Rp832
I2357
tp833
a(g1
((lp834
I4199953
aI16787479
atp835
Rp836
I2357
tp837
a(g1
((lp838
I4212241
aI16787479
atp839
Rp840
I2357
tp841
a(g1
((lp842
I4228625
aI8398611
atp843
Rp844
I2368
tp845
a(g1
((lp846
I4199953
aI8398611
atp847
Rp848
I2368
tp849
a(g1
((lp850
I4212241
aI8398611
atp851
Rp852
I2368
tp853
a(g1
((lp854
I268442665
aI134236965
atp855
Rp856
I2373
tp857
a(g1
((lp858
I268454953
aI134236965
atp859
Rp860
I2373
tp861
a(g1
((lp862
I268471337
aI134236965
atp863
Rp864
I2373
tp865
a(g1
((lp866
I268442665
aI134253349
atp867
Rp868
I2373
tp869
a(g1
((lp870
I268454953
aI134253349
atp871
Rp872
I2373
tp873
a(g1
((lp874
I268471337
aI134253349
atp875
Rp876
I2373
tp877
a(g1
((lp878
I268442665
aI134224677
atp879
Rp880
I2373
tp881
a(g1
((lp882
I268454953
aI134224677
atp883
Rp884
I2373
tp885
a(g1
((lp886
I268471337
aI134224677
atp887
Rp888
I2373
tp889
a(g1
((lp890
I268442665
aI67127839
atp891
Rp892
I2374
tp893
a(g1
((lp894
I268454953
aI67127839
atp895
Rp896
I2374
tp897
a(g1
((lp898
I268471337
aI67127839
atp899
Rp900
I2374
tp901
a(g1
((lp902
I268442665
aI67115551
atp903
Rp904
I2374
tp905
a(g1
((lp906
I268454953
aI67115551
atp907
Rp908
I2374
tp909
a(g1
((lp910
I268471337
aI67115551
atp911
Rp912
I2374
tp913
a(g1
((lp914
I268442665
aI67144223
atp915
Rp916
I2374
tp917
a(g1
((lp918
I268454953
aI67144223
atp919
Rp920
I2374
tp921
a(g1
((lp922
I268471337
aI67144223
atp923
Rp924
I2374
tp925
a(g1
((lp926
I268442665
aI33573149
atp927
Rp928
I2376
tp929
a(g1
((lp930
I268454953
aI33573149
atp931
Rp932
I2376
tp933
a(g1
((lp934
I268471337
aI33573149
atp935
Rp936
I2376
tp937
a(g1
((lp938
I268442665
aI33560861
atp939
Rp940
I2376
tp941
a(g1
((lp942
I268454953
aI33560861
atp943
Rp944
I2376
tp945
a(g1
((lp946
I268471337
aI33560861
atp947
Rp948
I2376
tp949
a(g1
((lp950
I268442665
aI33589533
atp951
Rp952
I2376
tp953
a(g1
((lp954
I268454953
aI33589533
atp955
Rp956
I2376
tp957
a(g1
((lp958
I268471337
aI33589533
atp959
Rp960
I2376
tp961
a(g1
((lp962
I4228625
aI2106637
atp963
Rp964
I2377
tp965
a(g1
((lp966
I268442665
aI16812055
atp967
Rp968
I2377
tp969
a(g1
((lp970
I268454953
aI16812055
atp971
Rp972
I2377
tp973
a(g1
((lp974
I268471337
aI16812055
atp975
Rp976
I2377
tp977
a(g1
((lp978
I268442665
aI16783383
atp979
Rp980
I2377
tp981
a(g1
((lp982
I268442665
aI16795671
atp983
Rp984
I2377
tp985
a(g1
((lp986
I268454953
aI16783383
atp987
Rp988
I2377
tp989
a(g1
((lp990
I268454953
aI16795671
atp991
Rp992
I2377
tp993
a(g1
((lp994
I268471337
aI16783383
atp995
Rp996
I2377
tp997
a(g1
((lp998
I268471337
aI16795671
atp999
Rp1000
I2377
tp1001
a(g1
((lp1002
I4199953
aI2106637
atp1003
Rp1004
I2377
tp1005
a(g1
((lp1006
I4212241
aI2106637
atp1007
Rp1008
I2377
tp1009
a(g1
((lp1010
I268442665
aI8423187
atp1011
Rp1012
I2378
tp1013
a(g1
((lp1014
I268454953
aI8423187
atp1015
Rp1016
I2378
tp1017
a(g1
((lp1018
I268471337
aI8423187
atp1019
Rp1020
I2378
tp1021
a(g1
((lp1022
I268442665
aI8406803
atp1023
Rp1024
I2378
tp1025
a(g1
((lp1026
I268442665
aI8394515
atp1027
Rp1028
I2378
tp1029
a(g1
((lp1030
I268454953
aI8406803
atp1031
Rp1032
I2378
tp1033
a(g1
((lp1034
I268471337
aI8406803
atp1035
Rp1036
I2378
tp1037
a(g1
((lp1038
I268454953
aI8394515
atp1039
Rp1040
I2378
tp1041
a(g1
((lp1042
I268471337
aI8394515
atp1043
Rp1044
I2378
tp1045
a(g1
((lp1046
I4228625
aI1057803
atp1047
Rp1048
I2379
tp1049
a(g1
((lp1050
I4199953
aI1057803
atp1051
Rp1052
I2379
tp1053
a(g1
((lp1054
I4212241
aI1057803
atp1055
Rp1056
I2379
tp1057
a(g1
((lp1058
I4228625
aI533255
atp1059
Rp1060
I2380
tp1061
a(g1
((lp1062
I4199953
aI533255
atp1063
Rp1064
I2380
tp1065
a(g1
((lp1066
I4212241
aI533255
atp1067
Rp1068
I2380
tp1069
a(g1
((lp1070
I268442665
aI2131213
atp1071
Rp1072
I2380
tp1073
a(g1
((lp1074
I268442665
aI2114829
atp1075
Rp1076
I2380
tp1077
a(g1
((lp1078
I268442665
aI2102541
atp1079
Rp1080
I2380
tp1081
a(g1
((lp1082
I268454953
aI2131213
atp1083
Rp1084
I2380
tp1085
a(g1
((lp1086
I268454953
aI2114829
atp1087
Rp1088
I2380
tp1089
a(g1
((lp1090
I268454953
aI2102541
atp1091
Rp1092
I2380
tp1093
a(g1
((lp1094
I268471337
aI2131213
atp1095
Rp1096
I2380
tp1097
a(g1
((lp1098
I268471337
aI2114829
atp1099
Rp1100
I2380
tp1101
a(g1
((lp1102
I268471337
aI2102541
atp1103
Rp1104
I2380
tp1105
a(g1
((lp1106
I4228625
aI270853
atp1107
Rp1108
I2381
tp1109
a(g1
((lp1110
I4199953
aI270853
atp1111
Rp1112
I2381
tp1113
a(g1
((lp1114
I4212241
aI270853
atp1115
Rp1116
I2381
tp1117
a(g1
((lp1118
I268442665
aI1082379
atp1119
Rp1120
I2381
tp1121
a(g1
((lp1122
I268454953
aI1082379
atp1123
Rp1124
I2381
tp1125
a(g1
((lp1126
I268471337
aI1082379
atp1127
Rp1128
I2381
tp1129
a(g1
((lp1130
I268442665
aI1053707
atp1131
Rp1132
I2381
tp1133
a(g1
((lp1134
I268442665
aI1065995
atp1135
Rp1136
I2381
tp1137
a(g1
((lp1138
I268454953
aI1053707
atp1139
Rp1140
I2381
tp1141
a(g1
((lp1142
I268454953
aI1065995
atp1143
Rp1144
I2381
tp1145
a(g1
((lp1146
I268471337
aI1053707
atp1147
Rp1148
I2381
tp1149
a(g1
((lp1150
I268471337
aI1065995
atp1151
Rp1152
I2381
tp1153
a(g1
((lp1154
I268442665
aI541447
atp1155
Rp1156
I2382
tp1157
a(g1
((lp1158
I268454953
aI541447
atp1159
Rp1160
I2382
tp1161
a(g1
((lp1162
I268471337
aI541447
atp1163
Rp1164
I2382
tp1165
a(g1
((lp1166
I268442665
aI266757
atp1167
Rp1168
I2382
tp1169
a(g1
((lp1170
I268454953
aI266757
atp1171
Rp1172
I2382
tp1173
a(g1
((lp1174
I268471337
aI266757
atp1175
Rp1176
I2382
tp1177
a(g1
((lp1178
I268442665
aI529159
atp1179
Rp1180
I2382
tp1181
a(g1
((lp1182
I268454953
aI529159
atp1183
Rp1184
I2382
tp1185
a(g1
((lp1186
I268471337
aI529159
atp1187
Rp1188
I2382
tp1189
a(g1
((lp1190
I4228625
aI139523
atp1191
Rp1192
I2382
tp1193
a(g1
((lp1194
I268442665
aI557831
atp1195
Rp1196
I2382
tp1197
a(g1
((lp1198
I268454953
aI557831
atp1199
Rp1200
I2382
tp1201
a(g1
((lp1202
I268471337
aI557831
atp1203
Rp1204
I2382
tp1205
a(g1
((lp1206
I268442665
aI295429
atp1207
Rp1208
I2382
tp1209
a(g1
((lp1210
I268442665
aI279045
atp1211
Rp1212
I2382
tp1213
a(g1
((lp1214
I268454953
aI295429
atp1215
Rp1216
I2382
tp1217
a(g1
((lp1218
I268454953
aI279045
atp1219
Rp1220
I2382
tp1221
a(g1
((lp1222
I268471337
aI295429
atp1223
Rp1224
I2382
tp1225
a(g1
((lp1226
I268471337
aI279045
atp1227
Rp1228
I2382
tp1229
a(g1
((lp1230
I4199953
aI139523
atp1231
Rp1232
I2382
tp1233
a(g1
((lp1234
I4212241
aI139523
atp1235
Rp1236
I2382
tp1237
a(g1
((lp1238
I268442665
aI147715
atp1239
Rp1240
I2383
tp1241
a(g1
((lp1242
I268454953
aI147715
atp1243
Rp1244
I2383
tp1245
a(g1
((lp1246
I268471337
aI147715
atp1247
Rp1248
I2383
tp1249
a(g1
((lp1250
I268442665
aI164099
atp1251
Rp1252
I2383
tp1253
a(g1
((lp1254
I268442665
aI135427
atp1255
Rp1256
I2383
tp1257
a(g1
((lp1258
I268454953
aI164099
atp1259
Rp1260
I2383
tp1261
a(g1
((lp1262
I268454953
aI135427
atp1263
Rp1264
I2383
tp1265
a(g1
((lp1266
I268471337
aI164099
atp1267
Rp1268
I2383
tp1269
a(g1
((lp1270
I268471337
aI135427
atp1271
Rp1272
I2383
tp1273
a(g1
((lp1274
I2131213
aI2106637
atp1275
Rp1276
I2411
tp1277
a(g1
((lp1278
I2114829
aI2106637
atp1279
Rp1280
I2411
tp1281
a(g1
((lp1282
I2106637
aI2102541
atp1283
Rp1284
I2411
tp1285
a(g1
((lp1286
I1057803
aI1082379
atp1287
Rp1288
I2439
tp1289
a(g1
((lp1290
I1057803
aI1053707
atp1291
Rp1292
I2439
tp1293
a(g1
((lp1294
I1057803
aI1065995
atp1295
Rp1296
I2439
tp1297
a(g1
((lp1298
I533255
aI541447
atp1299
Rp1300
I2461
tp1301
a(g1
((lp1302
I533255
aI529159
atp1303
Rp1304
I2461
tp1305
a(g1
((lp1306
I533255
aI557831
atp1307
Rp1308
I2461
tp1309
a(g1
((lp1310
I134236965
aI134253349
atp1311
Rp1312
I2476
tp1313
a(g1
((lp1314
I134236965
aI134224677
atp1315
Rp1316
I2476
tp1317
a(g1
((lp1318
I266757
aI270853
atp1319
Rp1320
I2476
tp1321
a(g1
((lp1322
I270853
aI295429
atp1323
Rp1324
I2476
tp1325
a(g1
((lp1326
I270853
aI279045
atp1327
Rp1328
I2476
tp1329
a(g1
((lp1330
I134253349
aI134224677
atp1331
Rp1332
I2476
tp1333
a(g1
((lp1334
I139523
aI147715
atp1335
Rp1336
I2485
tp1337
a(g1
((lp1338
I139523
aI164099
atp1339
Rp1340
I2485
tp1341
a(g1
((lp1342
I139523
aI135427
atp1343
Rp1344
I2485
tp1345
a(g1
((lp1346
I67115551
aI67127839
atp1347
Rp1348
I2570
tp1349
a(g1
((lp1350
I67144223
aI67127839
atp1351
Rp1352
I2570
tp1353
a(g1
((lp1354
I67144223
aI67115551
atp1355
Rp1356
I2570
tp1357
a(g1
((lp1358
I33573149
aI33560861
atp1359
Rp1360
I2656
tp1361
a(g1
((lp1362
I33573149
aI33589533
atp1363
Rp1364
I2656
tp1365
a(g1
((lp1366
I33560861
aI33589533
atp1367
Rp1368
I2656
tp1369
a(g1
((lp1370
I16783383
aI16812055
atp1371
Rp1372
I2732
tp1373
a(g1
((lp1374
I16795671
aI16812055
atp1375
Rp1376
I2732
tp1377
a(g1
((lp1378
I16795671
aI16783383
atp1379
Rp1380
I2732
tp1381
a(g1
((lp1382
I8406803
aI8423187
atp1383
Rp1384
I2798
tp1385
a(g1
((lp1386
I8394515
aI8423187
atp1387
Rp1388
I2798
tp1389
a(g1
((lp1390
I8394515
aI8406803
atp1391
Rp1392
I2798
tp1393
a(g1
((lp1394
I4228625
aI134236965
atp1395
Rp1396
I2826
tp1397
a(g1
((lp1398
I4199953
aI134236965
atp1399
Rp1400
I2826
tp1401
a(g1
((lp1402
I4212241
aI134236965
atp1403
Rp1404
I2826
tp1405
a(g1
((lp1406
I4228625
aI134253349
atp1407
Rp1408
I2826
tp1409
a(g1
((lp1410
I4199953
aI134253349
atp1411
Rp1412
I2826
tp1413
a(g1
((lp1414
I4212241
aI134253349
atp1415
Rp1416
I2826
tp1417
a(g1
((lp1418
I4228625
aI134224677
atp1419
Rp1420
I2826
tp1421
a(g1
((lp1422
I4199953
aI134224677
atp1423
Rp1424
I2826
tp1425
a(g1
((lp1426
I4212241
aI134224677
atp1427
Rp1428
I2826
tp1429
a(g1
((lp1430
I4228625
aI67127839
atp1431
Rp1432
I2834
tp1433
a(g1
((lp1434
I4199953
aI67127839
atp1435
Rp1436
I2834
tp1437
a(g1
((lp1438
I4212241
aI67127839
atp1439
Rp1440
I2834
tp1441
a(g1
((lp1442
I4228625
aI67115551
atp1443
Rp1444
I2834
tp1445
a(g1
((lp1446
I4199953
aI67115551
atp1447
Rp1448
I2834
tp1449
a(g1
((lp1450
I4212241
aI67115551
atp1451
Rp1452
I2834
tp1453
a(g1
((lp1454
I4228625
aI67144223
atp1455
Rp1456
I2834
tp1457
a(g1
((lp1458
I4199953
aI67144223
atp1459
Rp1460
I2834
tp1461
a(g1
((lp1462
I4212241
aI67144223
atp1463
Rp1464
I2834
tp1465
a(g1
((lp1466
I4228625
aI33573149
atp1467
Rp1468
I2840
tp1469
a(g1
((lp1470
I4199953
aI33573149
atp1471
Rp1472
I2840
tp1473
a(g1
((lp1474
I4212241
aI33573149
atp1475
Rp1476
I2840
tp1477
a(g1
((lp1478
I4228625
aI33560861
atp1479
Rp1480
I2840
tp1481
a(g1
((lp1482
I4199953
aI33560861
atp1483
Rp1484
I2840
tp1485
a(g1
((lp1486
I4212241
aI33560861
atp1487
Rp1488
I2840
tp1489
a(g1
((lp1490
I4228625
aI33589533
atp1491
Rp1492
I2840
tp1493
a(g1
((lp1494
I4199953
aI33589533
atp1495
Rp1496
I2840
tp1497
a(g1
((lp1498
I4212241
aI33589533
atp1499
Rp1500
I2840
tp1501
a(g1
((lp1502
I4228625
aI16812055
atp1503
Rp1504
I2846
tp1505
a(g1
((lp1506
I4228625
aI16783383
atp1507
Rp1508
I2846
tp1509
a(g1
((lp1510
I4228625
aI16795671
atp1511
Rp1512
I2846
tp1513
a(g1
((lp1514
I4199953
aI16812055
atp1515
Rp1516
I2846
tp1517
a(g1
((lp1518
I4212241
aI16812055
atp1519
Rp1520
I2846
tp1521
a(g1
((lp1522
I4199953
aI16783383
atp1523
Rp1524
I2846
tp1525
a(g1
((lp1526
I4199953
aI16795671
atp1527
Rp1528
I2846
tp1529
a(g1
((lp1530
I4212241
aI16783383
atp1531
Rp1532
I2846
tp1533
a(g1
((lp1534
I4212241
aI16795671
atp1535
Rp1536
I2846
tp1537
a(g1
((lp1538
I4228625
aI8423187
atp1539
Rp1540
I2851
tp1541
a(g1
((lp1542
I4199953
aI8423187
atp1543
Rp1544
I2851
tp1545
a(g1
((lp1546
I4212241
aI8423187
atp1547
Rp1548
I2851
tp1549
a(g1
((lp1550
I4228625
aI8406803
atp1551
Rp1552
I2851
tp1553
a(g1
((lp1554
I4228625
aI8394515
atp1555
Rp1556
I2851
tp1557
a(g1
((lp1558
I4199953
aI8406803
atp1559
Rp1560
I2851
tp1561
a(g1
((lp1562
I4212241
aI8406803
atp1563
Rp1564
I2851
tp1565
a(g1
((lp1566
I4199953
aI8394515
atp1567
Rp1568
I2851
tp1569
a(g1
((lp1570
I4212241
aI8394515
atp1571
Rp1572
I2851
tp1573
a(g1
((lp1574
I4228625
aI2131213
atp1575
Rp1576
I2856
tp1577
a(g1
((lp1578
I4228625
aI2114829
atp1579
Rp1580
I2856
tp1581
a(g1
((lp1582
I4228625
aI2102541
atp1583
Rp1584
I2856
tp1585
a(g1
((lp1586
I4199953
aI2131213
atp1587
Rp1588
I2856
tp1589
a(g1
((lp1590
I4212241
aI2131213
atp1591
Rp1592
I2856
tp1593
a(g1
((lp1594
I4199953
aI2114829
atp1595
Rp1596
I2856
tp1597
a(g1
((lp1598
I4199953
aI2102541
atp1599
Rp1600
I2856
tp1601
a(g1
((lp1602
I4212241
aI2114829
atp1603
Rp1604
I2856
tp1605
a(g1
((lp1606
I4212241
aI2102541
atp1607
Rp1608
I2856
tp1609
a(g1
((lp1610
I4228625
aI1082379
atp1611
Rp1612
I2857
tp1613
a(g1
((lp1614
I4228625
aI1053707
atp1615
Rp1616
I2857
tp1617
a(g1
((lp1618
I4228625
aI1065995
atp1619
Rp1620
I2857
tp1621
a(g1
((lp1622
I4199953
aI1082379
atp1623
Rp1624
I2857
tp1625
a(g1
((lp1626
I4212241
aI1082379
atp1627
Rp1628
I2857
tp1629
a(g1
((lp1630
I4199953
aI1053707
atp1631
Rp1632
I2857
tp1633
a(g1
((lp1634
I4199953
aI1065995
atp1635
Rp1636
I2857
tp1637
a(g1
((lp1638
I4212241
aI1053707
atp1639
Rp1640
I2857
tp1641
a(g1
((lp1642
I4212241
aI1065995
atp1643
Rp1644
I2857
tp1645
a(g1
((lp1646
I4228625
aI541447
atp1647
Rp1648
I2858
tp1649
a(g1
((lp1650
I4199953
aI541447
atp1651
Rp1652
I2858
tp1653
a(g1
((lp1654
I4212241
aI541447
atp1655
Rp1656
I2858
tp1657
a(g1
((lp1658
I4228625
aI266757
atp1659
Rp1660
I2858
tp1661
a(g1
((lp1662
I4199953
aI266757
atp1663
Rp1664
I2858
tp1665
a(g1
((lp1666
I4212241
aI266757
atp1667
Rp1668
I2858
tp1669
a(g1
((lp1670
I4228625
aI529159
atp1671
Rp1672
I2858
tp1673
a(g1
((lp1674
I4199953
aI529159
atp1675
Rp1676
I2858
tp1677
a(g1
((lp1678
I4212241
aI529159
atp1679
Rp1680
I2858
tp1681
a(g1
((lp1682
I4228625
aI557831
atp1683
Rp1684
I2858
tp1685
a(g1
((lp1686
I4228625
aI295429
atp1687
Rp1688
I2858
tp1689
a(g1
((lp1690
I4228625
aI279045
atp1691
Rp1692
I2858
tp1693
a(g1
((lp1694
I4199953
aI557831
atp1695
Rp1696
I2858
tp1697
a(g1
((lp1698
I4212241
aI557831
atp1699
Rp1700
I2858
tp1701
a(g1
((lp1702
I4199953
aI295429
atp1703
Rp1704
I2858
tp1705
a(g1
((lp1706
I4199953
aI279045
atp1707
Rp1708
I2858
tp1709
a(g1
((lp1710
I4212241
aI295429
atp1711
Rp1712
I2858
tp1713
a(g1
((lp1714
I4212241
aI279045
atp1715
Rp1716
I2858
tp1717
a(g1
((lp1718
I4228625
aI147715
atp1719
Rp1720
I2859
tp1721
a(g1
((lp1722
I4199953
aI147715
atp1723
Rp1724
I2859
tp1725
a(g1
((lp1726
I4212241
aI147715
atp1727
Rp1728
I2859
tp1729
a(g1
((lp1730
I4228625
aI164099
atp1731
Rp1732
I2859
tp1733
a(g1
((lp1734
I4228625
aI135427
atp1735
Rp1736
I2859
tp1737
a(g1
((lp1738
I4199953
aI164099
atp1739
Rp1740
I2859
tp1741
a(g1
((lp1742
I4212241
aI164099
atp1743
Rp1744
I2859
tp1745
a(g1
((lp1746
I4199953
aI135427
atp1747
Rp1748
I2859
tp1749
a(g1
((lp1750
I4212241
aI135427
atp1751
Rp1752
I2859
tp1753
a(g1
((lp1754
I2131213
aI2114829
atp1755
Rp1756
I2900
tp1757
a(g1
((lp1758
I2131213
aI2102541
atp1759
Rp1760
I2900
tp1761
a(g1
((lp1762
I2114829
aI2102541
atp1763
Rp1764
I2900
tp1765
a(g1
((lp1766
I1053707
aI1082379
atp1767
Rp1768
I2937
tp1769
a(g1
((lp1770
I1065995
aI1082379
atp1771
Rp1772
I2937
tp1773
a(g1
((lp1774
I1065995
aI1053707
atp1775
Rp1776
I2937
tp1777
a(g1
((lp1778
I529159
aI541447
atp1779
Rp1780
I2965
tp1781
a(g1
((lp1782
I557831
aI541447
atp1783
Rp1784
I2965
tp1785
a(g1
((lp1786
I557831
aI529159
atp1787
Rp1788
I2965
tp1789
a(g1
((lp1790
I266757
aI295429
atp1791
Rp1792
I2984
tp1793
a(g1
((lp1794
I266757
aI279045
atp1795
Rp1796
I2984
tp1797
a(g1
((lp1798
I295429
aI279045
atp1799
Rp1800
I2984
tp1801
a(g1
((lp1802
I164099
aI147715
atp1803
Rp1804
I2995
tp1805
a(g1
((lp1806
I135427
aI147715
atp1807
Rp1808
I2995
tp1809
a(g1
((lp1810
I135427
aI164099
atp1811
Rp1812
I2995
tp1813
a(g1
((lp1814
I266757
aI533255
atp1815
Rp1816
I3815
tp1817
a(g1
((lp1818
I295429
aI533255
atp1819
Rp1820
I3815
tp1821
a(g1
((lp1822
I279045
aI533255
atp1823
Rp1824
I3815
tp1825
a(g1
((lp1826
I270853
aI541447
atp1827
Rp1828
I3816
tp1829
a(g1
((lp1830
I270853
aI529159
atp1831
Rp1832
I3816
tp1833
a(g1
((lp1834
I270853
aI557831
atp1835
Rp1836
I3816
tp1837
a(g1
((lp1838
I147715
aI533255
atp1839
Rp1840
I3816
tp1841
a(g1
((lp1842
I164099
aI533255
atp1843
Rp1844
I3816
tp1845
a(g1
((lp1846
I135427
aI533255
atp1847
Rp1848
I3816
tp1849
a(g1
((lp1850
I139523
aI541447
atp1851
Rp1852
I3817
tp1853
a(g1
((lp1854
I139523
aI529159
atp1855
Rp1856
I3817
tp1857
a(g1
((lp1858
I139523
aI557831
atp1859
Rp1860
I3817
tp1861
a(g1
((lp1862
I139523
aI266757
atp1863
Rp1864
I3818
tp1865
a(g1
((lp1866
I147715
aI270853
atp1867
Rp1868
I3818
tp1869
a(g1
((lp1870
I164099
aI270853
atp1871
Rp1872
I3818
tp1873
a(g1
((lp1874
I135427
aI270853
atp1875
Rp1876
I3818
tp1877
a(g1
((lp1878
I139523
aI295429
atp1879
Rp1880
I3818
tp1881
a(g1
((lp1882
I139523
aI279045
atp1883
Rp1884
I3818
tp1885
a(g1
((lp1886
I134228773
aI67127839
atp1887
Rp1888
I3975
tp1889
a(g1
((lp1890
I134228773
aI67115551
atp1891
Rp1892
I3975
tp1893
a(g1
((lp1894
I134228773
aI67144223
atp1895
Rp1896
I3975
tp1897
a(g1
((lp1898
I33573149
aI134228773
atp1899
Rp1900
I3980
tp1901
a(g1
((lp1902
I33560861
aI134228773
atp1903
Rp1904
I3980
tp1905
a(g1
((lp1906
I33589533
aI134228773
atp1907
Rp1908
I3980
tp1909
a(g1
((lp1910
I134228773
aI16812055
atp1911
Rp1912
I3984
tp1913
a(g1
((lp1914
I134228773
aI16783383
atp1915
Rp1916
I3984
tp1917
a(g1
((lp1918
I134228773
aI16795671
atp1919
Rp1920
I3984
tp1921
a(g1
((lp1922
I8423187
aI134228773
atp1923
Rp1924
I3988
tp1925
a(g1
((lp1926
I8406803
aI134228773
atp1927
Rp1928
I3988
tp1929
a(g1
((lp1930
I8394515
aI134228773
atp1931
Rp1932
I3988
tp1933
a(g1
((lp1934
I2131213
aI134228773
atp1935
Rp1936
I3993
tp1937
a(g1
((lp1938
I2114829
aI134228773
atp1939
Rp1940
I3993
tp1941
a(g1
((lp1942
I2102541
aI134228773
atp1943
Rp1944
I3993
tp1945
a(g1
((lp1946
I1082379
aI134228773
atp1947
Rp1948
I3995
tp1949
a(g1
((lp1950
I1053707
aI134228773
atp1951
Rp1952
I3995
tp1953
a(g1
((lp1954
I1065995
aI134228773
atp1955
Rp1956
I3995
tp1957
a(g1
((lp1958
I134228773
aI541447
atp1959
Rp1960
I3997
tp1961
a(g1
((lp1962
I134228773
aI529159
atp1963
Rp1964
I3997
tp1965
a(g1
((lp1966
I134228773
aI557831
atp1967
Rp1968
I3997
tp1969
a(g1
((lp1970
I134236965
aI67119647
atp1971
Rp1972
I3998
tp1973
a(g1
((lp1974
I134253349
aI67119647
atp1975
Rp1976
I3998
tp1977
a(g1
((lp1978
I134224677
aI67119647
atp1979
Rp1980
I3998
tp1981
a(g1
((lp1982
I266757
aI134228773
atp1983
Rp1984
I3998
tp1985
a(g1
((lp1986
I147715
aI134228773
atp1987
Rp1988
I3998
tp1989
a(g1
((lp1990
I164099
aI134228773
atp1991
Rp1992
I3998
tp1993
a(g1
((lp1994
I135427
aI134228773
atp1995
Rp1996
I3998
tp1997
a(g1
((lp1998
I295429
aI134228773
atp1999
Rp2000
I3998
tp2001
a(g1
((lp2002
I279045
aI134228773
atp2003
Rp2004
I3998
tp2005
a(g1
((lp2006
I33573149
aI67119647
atp2007
Rp2008
I4012
tp2009
a(g1
((lp2010
I33560861
aI67119647
atp2011
Rp2012
I4012
tp2013
a(g1
((lp2014
I33589533
aI67119647
atp2015
Rp2016
I4012
tp2017
a(g1
((lp2018
I16812055
aI67119647
atp2019
Rp2020
I4016
tp2021
a(g1
((lp2022
I16783383
aI67119647
atp2023
Rp2024
I4016
tp2025
a(g1
((lp2026
I16795671
aI67119647
atp2027
Rp2028
I4016
tp2029
a(g1
((lp2030
I134236965
aI33564957
atp2031
Rp2032
I4019
tp2033
a(g1
((lp2034
I33564957
aI134253349
atp2035
Rp2036
I4019
tp2037
a(g1
((lp2038
I33564957
aI134224677
atp2039
Rp2040
I4019
tp2041
a(g1
((lp2042
I8423187
aI67119647
atp2043
Rp2044
I4020
tp2045
a(g1
((lp2046
I8406803
aI67119647
atp2047
Rp2048
I4020
tp2049
a(g1
((lp2050
I8394515
aI67119647
atp2051
Rp2052
I4020
tp2053
a(g1
((lp2054
I2131213
aI67119647
atp2055
Rp2056
I4025
tp2057
a(g1
((lp2058
I2114829
aI67119647
atp2059
Rp2060
I4025
tp2061
a(g1
((lp2062
I2102541
aI67119647
atp2063
Rp2064
I4025
tp2065
a(g1
((lp2066
I1082379
aI67119647
atp2067
Rp2068
I4027
tp2069
a(g1
((lp2070
I1053707
aI67119647
atp2071
Rp2072
I4027
tp2073
a(g1
((lp2074
I1065995
aI67119647
atp2075
Rp2076
I4027
tp2077
a(g1
((lp2078
I33564957
aI67127839
atp2079
Rp2080
I4028
tp2081
a(g1
((lp2082
I33564957
aI67115551
atp2083
Rp2084
I4028
tp2085
a(g1
((lp2086
I33564957
aI67144223
atp2087
Rp2088
I4028
tp2089
a(g1
((lp2090
I67119647
aI541447
atp2091
Rp2092
I4029
tp2093
a(g1
((lp2094
I529159
aI67119647
atp2095
Rp2096
I4029
tp2097
a(g1
((lp2098
I557831
aI67119647
atp2099
Rp2100
I4029
tp2101
a(g1
((lp2102
I266757
aI67119647
atp2103
Rp2104
I4030
tp2105
a(g1
((lp2106
I147715
aI67119647
atp2107
Rp2108
I4030
tp2109
a(g1
((lp2110
I164099
aI67119647
atp2111
Rp2112
I4030
tp2113
a(g1
((lp2114
I135427
aI67119647
atp2115
Rp2116
I4030
tp2117
a(g1
((lp2118
I295429
aI67119647
atp2119
Rp2120
I4030
tp2121
a(g1
((lp2122
I279045
aI67119647
atp2123
Rp2124
I4030
tp2125
a(g1
((lp2126
I134236965
aI16787479
atp2127
Rp2128
I4033
tp2129
a(g1
((lp2130
I134253349
aI16787479
atp2131
Rp2132
I4033
tp2133
a(g1
((lp2134
I134224677
aI16787479
atp2135
Rp2136
I4033
tp2137
a(g1
((lp2138
I33564957
aI16812055
atp2139
Rp2140
I4040
tp2141
a(g1
((lp2142
I33564957
aI16783383
atp2143
Rp2144
I4040
tp2145
a(g1
((lp2146
I33564957
aI16795671
atp2147
Rp2148
I4040
tp2149
a(g1
((lp2150
I16787479
aI67127839
atp2151
Rp2152
I4042
tp2153
a(g1
((lp2154
I16787479
aI67115551
atp2155
Rp2156
I4042
tp2157
a(g1
((lp2158
I67144223
aI16787479
atp2159
Rp2160
I4042
tp2161
a(g1
((lp2162
I8423187
aI33564957
atp2163
Rp2164
I4043
tp2165
a(g1
((lp2166
I8406803
aI33564957
atp2167
Rp2168
I4043
tp2169
a(g1
((lp2170
I8394515
aI33564957
atp2171
Rp2172
I4043
tp2173
a(g1
((lp2174
I8398611
aI134236965
atp2175
Rp2176
I4044
tp2177
a(g1
((lp2178
I8398611
aI134253349
atp2179
Rp2180
I4044
tp2181
a(g1
((lp2182
I8398611
aI134224677
atp2183
Rp2184
I4044
tp2185
a(g1
((lp2186
I33564957
aI2131213
atp2187
Rp2188
I4049
tp2189
a(g1
((lp2190
I33564957
aI2114829
atp2191
Rp2192
I4049
tp2193
a(g1
((lp2194
I33564957
aI2102541
atp2195
Rp2196
I4049
tp2197
a(g1
((lp2198
I33573149
aI16787479
atp2199
Rp2200
I4050
tp2201
a(g1
((lp2202
I33560861
aI16787479
atp2203
Rp2204
I4050
tp2205
a(g1
((lp2206
I33589533
aI16787479
atp2207
Rp2208
I4050
tp2209
a(g1
((lp2210
I1082379
aI33564957
atp2211
Rp2212
I4051
tp2213
a(g1
((lp2214
I1053707
aI33564957
atp2215
Rp2216
I4051
tp2217
a(g1
((lp2218
I1065995
aI33564957
atp2219
Rp2220
I4051
tp2221
a(g1
((lp2222
I33564957
aI541447
atp2223
Rp2224
I4052
tp2225
a(g1
((lp2226
I33564957
aI529159
atp2227
Rp2228
I4052
tp2229
a(g1
((lp2230
I33564957
aI557831
atp2231
Rp2232
I4052
tp2233
a(g1
((lp2234
I33564957
aI266757
atp2235
Rp2236
I4053
tp2237
a(g1
((lp2238
I33564957
aI295429
atp2239
Rp2240
I4053
tp2241
a(g1
((lp2242
I33564957
aI279045
atp2243
Rp2244
I4053
tp2245
a(g1
((lp2246
I8398611
aI67127839
atp2247
Rp2248
I4053
tp2249
a(g1
((lp2250
I8398611
aI67115551
atp2251
Rp2252
I4053
tp2253
a(g1
((lp2254
I8398611
aI67144223
atp2255
Rp2256
I4053
tp2257
a(g1
((lp2258
I147715
aI33564957
atp2259
Rp2260
I4054
tp2261
a(g1
((lp2262
I164099
aI33564957
atp2263
Rp2264
I4054
tp2265
a(g1
((lp2266
I135427
aI33564957
atp2267
Rp2268
I4054
tp2269
a(g1
((lp2270
I134236965
aI2106637
atp2271
Rp2272
I4056
tp2273
a(g1
((lp2274
I134253349
aI2106637
atp2275
Rp2276
I4056
tp2277
a(g1
((lp2278
I134224677
aI2106637
atp2279
Rp2280
I4056
tp2281
a(g1
((lp2282
I1057803
aI134236965
atp2283
Rp2284
I4060
tp2285
a(g1
((lp2286
I1057803
aI134253349
atp2287
Rp2288
I4060
tp2289
a(g1
((lp2290
I8423187
aI16787479
atp2291
Rp2292
I4060
tp2293
a(g1
((lp2294
I1057803
aI134224677
atp2295
Rp2296
I4060
tp2297
a(g1
((lp2298
I8406803
aI16787479
atp2299
Rp2300
I4060
tp2301
a(g1
((lp2302
I8394515
aI16787479
atp2303
Rp2304
I4060
tp2305
a(g1
((lp2306
I8398611
aI33573149
atp2307
Rp2308
I4061
tp2309
a(g1
((lp2310
I8398611
aI33560861
atp2311
Rp2312
I4061
tp2313
a(g1
((lp2314
I8398611
aI33589533
atp2315
Rp2316
I4061
tp2317
a(g1
((lp2318
I134236965
aI533255
atp2319
Rp2320
I4063
tp2321
a(g1
((lp2322
I134253349
aI533255
atp2323
Rp2324
I4063
tp2325
a(g1
((lp2326
I134224677
aI533255
atp2327
Rp2328
I4063
tp2329
a(g1
((lp2330
I134236965
aI270853
atp2331
Rp2332
I4065
tp2333
a(g1
((lp2334
I139523
aI134236965
atp2335
Rp2336
I4065
tp2337
a(g1
((lp2338
I2106637
aI67127839
atp2339
Rp2340
I4065
tp2341
a(g1
((lp2342
I270853
aI134253349
atp2343
Rp2344
I4065
tp2345
a(g1
((lp2346
I270853
aI134224677
atp2347
Rp2348
I4065
tp2349
a(g1
((lp2350
I139523
aI134253349
atp2351
Rp2352
I4065
tp2353
a(g1
((lp2354
I2106637
aI67115551
atp2355
Rp2356
I4065
tp2357
a(g1
((lp2358
I139523
aI134224677
atp2359
Rp2360
I4065
tp2361
a(g1
((lp2362
I2106637
aI67144223
atp2363
Rp2364
I4065
tp2365
a(g1
((lp2366
I2131213
aI16787479
atp2367
Rp2368
I4066
tp2369
a(g1
((lp2370
I2114829
aI16787479
atp2371
Rp2372
I4066
tp2373
a(g1
((lp2374
I2102541
aI16787479
atp2375
Rp2376
I4066
tp2377
a(g1
((lp2378
I1082379
aI16787479
atp2379
Rp2380
I4067
tp2381
a(g1
((lp2382
I8398611
aI16812055
atp2383
Rp2384
I4067
tp2385
a(g1
((lp2386
I8398611
aI16783383
atp2387
Rp2388
I4067
tp2389
a(g1
((lp2390
I8398611
aI16795671
atp2391
Rp2392
I4067
tp2393
a(g1
((lp2394
I1053707
aI16787479
atp2395
Rp2396
I4067
tp2397
a(g1
((lp2398
I1065995
aI16787479
atp2399
Rp2400
I4067
tp2401
a(g1
((lp2402
I16787479
aI541447
atp2403
Rp2404
I4069
tp2405
a(g1
((lp2406
I16787479
aI529159
atp2407
Rp2408
I4069
tp2409
a(g1
((lp2410
I1057803
aI67127839
atp2411
Rp2412
I4069
tp2413
a(g1
((lp2414
I1057803
aI67115551
atp2415
Rp2416
I4069
tp2417
a(g1
((lp2418
I16787479
aI557831
atp2419
Rp2420
I4069
tp2421
a(g1
((lp2422
I1057803
aI67144223
atp2423
Rp2424
I4069
tp2425
a(g1
((lp2426
I266757
aI16787479
atp2427
Rp2428
I4070
tp2429
a(g1
((lp2430
I147715
aI16787479
atp2431
Rp2432
I4070
tp2433
a(g1
((lp2434
I164099
aI16787479
atp2435
Rp2436
I4070
tp2437
a(g1
((lp2438
I135427
aI16787479
atp2439
Rp2440
I4070
tp2441
a(g1
((lp2442
I295429
aI16787479
atp2443
Rp2444
I4070
tp2445
a(g1
((lp2446
I279045
aI16787479
atp2447
Rp2448
I4070
tp2449
a(g1
((lp2450
I533255
aI67127839
atp2451
Rp2452
I4072
tp2453
a(g1
((lp2454
I533255
aI67115551
atp2455
Rp2456
I4072
tp2457
a(g1
((lp2458
I67144223
aI533255
atp2459
Rp2460
I4072
tp2461
a(g1
((lp2462
I33573149
aI2106637
atp2463
Rp2464
I4073
tp2465
a(g1
((lp2466
I33560861
aI2106637
atp2467
Rp2468
I4073
tp2469
a(g1
((lp2470
I33589533
aI2106637
atp2471
Rp2472
I4073
tp2473
a(g1
((lp2474
I270853
aI67127839
atp2475
Rp2476
I4074
tp2477
a(g1
((lp2478
I139523
aI67127839
atp2479
Rp2480
I4074
tp2481
a(g1
((lp2482
I270853
aI67115551
atp2483
Rp2484
I4074
tp2485
a(g1
((lp2486
I270853
aI67144223
atp2487
Rp2488
I4074
tp2489
a(g1
((lp2490
I139523
aI67115551
atp2491
Rp2492
I4074
tp2493
a(g1
((lp2494
I139523
aI67144223
atp2495
Rp2496
I4074
tp2497
a(g1
((lp2498
I1057803
aI33573149
atp2499
Rp2500
I4077
tp2501
a(g1
((lp2502
I1057803
aI33560861
atp2503
Rp2504
I4077
tp2505
a(g1
((lp2506
I1057803
aI33589533
atp2507
Rp2508
I4077
tp2509
a(g1
((lp2510
I8398611
aI2131213
atp2511
Rp2512
I4078
tp2513
a(g1
((lp2514
I8398611
aI2114829
atp2515
Rp2516
I4078
tp2517
a(g1
((lp2518
I8398611
aI2102541
atp2519
Rp2520
I4078
tp2521
a(g1
((lp2522
I33573149
aI533255
atp2523
Rp2524
I4079
tp2525
a(g1
((lp2526
I33560861
aI533255
atp2527
Rp2528
I4079
tp2529
a(g1
((lp2530
I2106637
aI16812055
atp2531
Rp2532
I4079
tp2533
a(g1
((lp2534
I33589533
aI533255
atp2535
Rp2536
I4079
tp2537
a(g1
((lp2538
I2106637
aI16783383
atp2539
Rp2540
I4079
tp2541
a(g1
((lp2542
I2106637
aI16795671
atp2543
Rp2544
I4079
tp2545
a(g1
((lp2546
I8398611
aI1082379
atp2547
Rp2548
I4080
tp2549
a(g1
((lp2550
I1053707
aI8398611
atp2551
Rp2552
I4080
tp2553
a(g1
((lp2554
I1065995
aI8398611
atp2555
Rp2556
I4080
tp2557
a(g1
((lp2558
I8398611
aI541447
atp2559
Rp2560
I4081
tp2561
a(g1
((lp2562
I33573149
aI270853
atp2563
Rp2564
I4081
tp2565
a(g1
((lp2566
I33560861
aI270853
atp2567
Rp2568
I4081
tp2569
a(g1
((lp2570
I8398611
aI529159
atp2571
Rp2572
I4081
tp2573
a(g1
((lp2574
I270853
aI33589533
atp2575
Rp2576
I4081
tp2577
a(g1
((lp2578
I8398611
aI557831
atp2579
Rp2580
I4081
tp2581
a(g1
((lp2582
I139523
aI33573149
atp2583
Rp2584
I4082
tp2585
a(g1
((lp2586
I139523
aI33560861
atp2587
Rp2588
I4082
tp2589
a(g1
((lp2590
I8398611
aI266757
atp2591
Rp2592
I4082
tp2593
a(g1
((lp2594
I8398611
aI147715
atp2595
Rp2596
I4082
tp2597
a(g1
((lp2598
I164099
aI8398611
atp2599
Rp2600
I4082
tp2601
a(g1
((lp2602
I135427
aI8398611
atp2603
Rp2604
I4082
tp2605
a(g1
((lp2606
I8398611
aI295429
atp2607
Rp2608
I4082
tp2609
a(g1
((lp2610
I8398611
aI279045
atp2611
Rp2612
I4082
tp2613
a(g1
((lp2614
I139523
aI33589533
atp2615
Rp2616
I4082
tp2617
a(g1
((lp2618
I1057803
aI16812055
atp2619
Rp2620
I4083
tp2621
a(g1
((lp2622
I1057803
aI16783383
atp2623
Rp2624
I4083
tp2625
a(g1
((lp2626
I1057803
aI16795671
atp2627
Rp2628
I4083
tp2629
a(g1
((lp2630
I8423187
aI2106637
atp2631
Rp2632
I4085
tp2633
a(g1
((lp2634
I8406803
aI2106637
atp2635
Rp2636
I4085
tp2637
a(g1
((lp2638
I8394515
aI2106637
atp2639
Rp2640
I4085
tp2641
a(g1
((lp2642
I533255
aI16812055
atp2643
Rp2644
I4086
tp2645
a(g1
((lp2646
I16783383
aI533255
atp2647
Rp2648
I4086
tp2649
a(g1
((lp2650
I16795671
aI533255
atp2651
Rp2652
I4086
tp2653
a(g1
((lp2654
I270853
aI16812055
atp2655
Rp2656
I4088
tp2657
a(g1
((lp2658
I270853
aI16783383
atp2659
Rp2660
I4088
tp2661
a(g1
((lp2662
I270853
aI16795671
atp2663
Rp2664
I4088
tp2665
a(g1
((lp2666
I1057803
aI8423187
atp2667
Rp2668
I4088
tp2669
a(g1
((lp2670
I139523
aI16812055
atp2671
Rp2672
I4088
tp2673
a(g1
((lp2674
I1057803
aI8406803
atp2675
Rp2676
I4088
tp2677
a(g1
((lp2678
I1057803
aI8394515
atp2679
Rp2680
I4088
tp2681
a(g1
((lp2682
I139523
aI16783383
atp2683
Rp2684
I4088
tp2685
a(g1
((lp2686
I139523
aI16795671
atp2687
Rp2688
I4088
tp2689
a(g1
((lp2690
I8423187
aI533255
atp2691
Rp2692
I4091
tp2693
a(g1
((lp2694
I8406803
aI533255
atp2695
Rp2696
I4091
tp2697
a(g1
((lp2698
I8394515
aI533255
atp2699
Rp2700
I4091
tp2701
a(g1
((lp2702
I8423187
aI270853
atp2703
Rp2704
I4093
tp2705
a(g1
((lp2706
I8406803
aI270853
atp2707
Rp2708
I4093
tp2709
a(g1
((lp2710
I8394515
aI270853
atp2711
Rp2712
I4093
tp2713
a(g1
((lp2714
I1082379
aI2106637
atp2715
Rp2716
I4093
tp2717
a(g1
((lp2718
I1053707
aI2106637
atp2719
Rp2720
I4093
tp2721
a(g1
((lp2722
I1065995
aI2106637
atp2723
Rp2724
I4093
tp2725
a(g1
((lp2726
I139523
aI8423187
atp2727
Rp2728
I4094
tp2729
a(g1
((lp2730
I139523
aI8406803
atp2731
Rp2732
I4094
tp2733
a(g1
((lp2734
I139523
aI8394515
atp2735
Rp2736
I4094
tp2737
a(g1
((lp2738
I2106637
aI541447
atp2739
Rp2740
I4095
tp2741
a(g1
((lp2742
I2106637
aI529159
atp2743
Rp2744
I4095
tp2745
a(g1
((lp2746
I2106637
aI557831
atp2747
Rp2748
I4095
tp2749
a(g1
((lp2750
I1057803
aI2131213
atp2751
Rp2752
I4095
tp2753
a(g1
((lp2754
I1057803
aI2114829
atp2755
Rp2756
I4095
tp2757
a(g1
((lp2758
I1057803
aI2102541
atp2759
Rp2760
I4095
tp2761
a(g1
((lp2762
I266757
aI2106637
atp2763
Rp2764
I4096
tp2765
a(g1
((lp2766
I147715
aI2106637
atp2767
Rp2768
I4096
tp2769
a(g1
((lp2770
I164099
aI2106637
atp2771
Rp2772
I4096
tp2773
a(g1
((lp2774
I135427
aI2106637
atp2775
Rp2776
I4096
tp2777
a(g1
((lp2778
I2106637
aI295429
atp2779
Rp2780
I4096
tp2781
a(g1
((lp2782
I2106637
aI279045
atp2783
Rp2784
I4096
tp2785
a(g1
((lp2786
I2131213
aI533255
atp2787
Rp2788
I4098
tp2789
a(g1
((lp2790
I2114829
aI533255
atp2791
Rp2792
I4098
tp2793
a(g1
((lp2794
I2102541
aI533255
atp2795
Rp2796
I4098
tp2797
a(g1
((lp2798
I1057803
aI541447
atp2799
Rp2800
I4099
tp2801
a(g1
((lp2802
I1057803
aI529159
atp2803
Rp2804
I4099
tp2805
a(g1
((lp2806
I1057803
aI557831
atp2807
Rp2808
I4099
tp2809
a(g1
((lp2810
I1057803
aI266757
atp2811
Rp2812
I4100
tp2813
a(g1
((lp2814
I270853
aI2131213
atp2815
Rp2816
I4100
tp2817
a(g1
((lp2818
I270853
aI2114829
atp2819
Rp2820
I4100
tp2821
a(g1
((lp2822
I270853
aI2102541
atp2823
Rp2824
I4100
tp2825
a(g1
((lp2826
I1057803
aI147715
atp2827
Rp2828
I4100
tp2829
a(g1
((lp2830
I1082379
aI533255
atp2831
Rp2832
I4100
tp2833
a(g1
((lp2834
I1053707
aI533255
atp2835
Rp2836
I4100
tp2837
a(g1
((lp2838
I1065995
aI533255
atp2839
Rp2840
I4100
tp2841
a(g1
((lp2842
I1057803
aI164099
atp2843
Rp2844
I4100
tp2845
a(g1
((lp2846
I139523
aI2131213
atp2847
Rp2848
I4100
tp2849
a(g1
((lp2850
I139523
aI2114829
atp2851
Rp2852
I4100
tp2853
a(g1
((lp2854
I1057803
aI135427
atp2855
Rp2856
I4100
tp2857
a(g1
((lp2858
I1057803
aI295429
atp2859
Rp2860
I4100
tp2861
a(g1
((lp2862
I1057803
aI279045
atp2863
Rp2864
I4100
tp2865
a(g1
((lp2866
I139523
aI2102541
atp2867
Rp2868
I4100
tp2869
a(g1
((lp2870
I1082379
aI270853
atp2871
Rp2872
I4102
tp2873
a(g1
((lp2874
I1053707
aI270853
atp2875
Rp2876
I4102
tp2877
a(g1
((lp2878
I1065995
aI270853
atp2879
Rp2880
I4102
tp2881
a(g1
((lp2882
I139523
aI1082379
atp2883
Rp2884
I4102
tp2885
a(g1
((lp2886
I139523
aI1053707
atp2887
Rp2888
I4102
tp2889
a(g1
((lp2890
I139523
aI1065995
atp2891
Rp2892
I4102
tp2893
a(g1
((lp2894
I266757
aI541447
atp2895
Rp2896
I4695
tp2897
a(g1
((lp2898
I295429
aI541447
atp2899
Rp2900
I4695
tp2901
a(g1
((lp2902
I279045
aI541447
atp2903
Rp2904
I4695
tp2905
a(g1
((lp2906
I266757
aI529159
atp2907
Rp2908
I4695
tp2909
a(g1
((lp2910
I266757
aI557831
atp2911
Rp2912
I4695
tp2913
a(g1
((lp2914
I295429
aI529159
atp2915
Rp2916
I4695
tp2917
a(g1
((lp2918
I279045
aI529159
atp2919
Rp2920
I4695
tp2921
a(g1
((lp2922
I295429
aI557831
atp2923
Rp2924
I4695
tp2925
a(g1
((lp2926
I279045
aI557831
atp2927
Rp2928
I4695
tp2929
a(g1
((lp2930
I147715
aI541447
atp2931
Rp2932
I4696
tp2933
a(g1
((lp2934
I164099
aI541447
atp2935
Rp2936
I4696
tp2937
a(g1
((lp2938
I135427
aI541447
atp2939
Rp2940
I4696
tp2941
a(g1
((lp2942
I147715
aI529159
atp2943
Rp2944
I4696
tp2945
a(g1
((lp2946
I164099
aI529159
atp2947
Rp2948
I4696
tp2949
a(g1
((lp2950
I135427
aI529159
atp2951
Rp2952
I4696
tp2953
a(g1
((lp2954
I147715
aI557831
atp2955
Rp2956
I4696
tp2957
a(g1
((lp2958
I164099
aI557831
atp2959
Rp2960
I4696
tp2961
a(g1
((lp2962
I135427
aI557831
atp2963
Rp2964
I4696
tp2965
a(g1
((lp2966
I147715
aI266757
atp2967
Rp2968
I4698
tp2969
a(g1
((lp2970
I164099
aI266757
atp2971
Rp2972
I4698
tp2973
a(g1
((lp2974
I135427
aI266757
atp2975
Rp2976
I4698
tp2977
a(g1
((lp2978
I147715
aI295429
atp2979
Rp2980
I4698
tp2981
a(g1
((lp2982
I147715
aI279045
atp2983
Rp2984
I4698
tp2985
a(g1
((lp2986
I164099
aI295429
atp2987
Rp2988
I4698
tp2989
a(g1
((lp2990
I164099
aI279045
atp2991
Rp2992
I4698
tp2993
a(g1
((lp2994
I135427
aI295429
atp2995
Rp2996
I4698
tp2997
a(g1
((lp2998
I135427
aI279045
atp2999
Rp3000
I4698
tp3001
a(g1
((lp3002
I134236965
aI67127839
atp3003
Rp3004
I4989
tp3005
a(g1
((lp3006
I134236965
aI67115551
atp3007
Rp3008
I4989
tp3009
a(g1
((lp3010
I134236965
aI67144223
atp3011
Rp3012
I4989
tp3013
a(g1
((lp3014
I134253349
aI67127839
atp3015
Rp3016
I4989
tp3017
a(g1
((lp3018
I134224677
aI67127839
atp3019
Rp3020
I4989
tp3021
a(g1
((lp3022
I134253349
aI67115551
atp3023
Rp3024
I4989
tp3025
a(g1
((lp3026
I134253349
aI67144223
atp3027
Rp3028
I4989
tp3029
a(g1
((lp3030
I134224677
aI67115551
atp3031
Rp3032
I4989
tp3033
a(g1
((lp3034
I134224677
aI67144223
atp3035
Rp3036
I4989
tp3037
a(g1
((lp3038
I134236965
aI33573149
atp3039
Rp3040
I4996
tp3041
a(g1
((lp3042
I134236965
aI33560861
atp3043
Rp3044
I4996
tp3045
a(g1
((lp3046
I134236965
aI33589533
atp3047
Rp3048
I4996
tp3049
a(g1
((lp3050
I33573149
aI134253349
atp3051
Rp3052
I4996
tp3053
a(g1
((lp3054
I33573149
aI134224677
atp3055
Rp3056
I4996
tp3057
a(g1
((lp3058
I33560861
aI134253349
atp3059
Rp3060
I4996
tp3061
a(g1
((lp3062
I33560861
aI134224677
atp3063
Rp3064
I4996
tp3065
a(g1
((lp3066
I134253349
aI33589533
atp3067
Rp3068
I4996
tp3069
a(g1
((lp3070
I134224677
aI33589533
atp3071
Rp3072
I4996
tp3073
a(g1
((lp3074
I134236965
aI16812055
atp3075
Rp3076
I5002
tp3077
a(g1
((lp3078
I134236965
aI16783383
atp3079
Rp3080
I5002
tp3081
a(g1
((lp3082
I134236965
aI16795671
atp3083
Rp3084
I5002
tp3085
a(g1
((lp3086
I134253349
aI16812055
atp3087
Rp3088
I5002
tp3089
a(g1
((lp3090
I134253349
aI16783383
atp3091
Rp3092
I5002
tp3093
a(g1
((lp3094
I134253349
aI16795671
atp3095
Rp3096
I5002
tp3097
a(g1
((lp3098
I134224677
aI16812055
atp3099
Rp3100
I5002
tp3101
a(g1
((lp3102
I134224677
aI16783383
atp3103
Rp3104
I5002
tp3105
a(g1
((lp3106
I134224677
aI16795671
atp3107
Rp3108
I5002
tp3109
a(g1
((lp3110
I8423187
aI134236965
atp3111
Rp3112
I5008
tp3113
a(g1
((lp3114
I8406803
aI134236965
atp3115
Rp3116
I5008
tp3117
a(g1
((lp3118
I8394515
aI134236965
atp3119
Rp3120
I5008
tp3121
a(g1
((lp3122
I8423187
aI134253349
atp3123
Rp3124
I5008
tp3125
a(g1
((lp3126
I8406803
aI134253349
atp3127
Rp3128
I5008
tp3129
a(g1
((lp3130
I8394515
aI134253349
atp3131
Rp3132
I5008
tp3133
a(g1
((lp3134
I8423187
aI134224677
atp3135
Rp3136
I5008
tp3137
a(g1
((lp3138
I8406803
aI134224677
atp3139
Rp3140
I5008
tp3141
a(g1
((lp3142
I8394515
aI134224677
atp3143
Rp3144
I5008
tp3145
a(g1
((lp3146
I33573149
aI67127839
atp3147
Rp3148
I5009
tp3149
a(g1
((lp3150
I33573149
aI67115551
atp3151
Rp3152
I5009
tp3153
a(g1
((lp3154
I33573149
aI67144223
atp3155
Rp3156
I5009
tp3157
a(g1
((lp3158
I33560861
aI67127839
atp3159
Rp3160
I5009
tp3161
a(g1
((lp3162
I33560861
aI67115551
atp3163
Rp3164
I5009
tp3165
a(g1
((lp3166
I33560861
aI67144223
atp3167
Rp3168
I5009
tp3169
a(g1
((lp3170
I33589533
aI67127839
atp3171
Rp3172
I5009
tp3173
a(g1
((lp3174
I33589533
aI67115551
atp3175
Rp3176
I5009
tp3177
a(g1
((lp3178
I33589533
aI67144223
atp3179
Rp3180
I5009
tp3181
a(g1
((lp3182
I16812055
aI67127839
atp3183
Rp3184
I5015
tp3185
a(g1
((lp3186
I16783383
aI67127839
atp3187
Rp3188
I5015
tp3189
a(g1
((lp3190
I16795671
aI67127839
atp3191
Rp3192
I5015
tp3193
a(g1
((lp3194
I16812055
aI67115551
atp3195
Rp3196
I5015
tp3197
a(g1
((lp3198
I16783383
aI67115551
atp3199
Rp3200
I5015
tp3201
a(g1
((lp3202
I16795671
aI67115551
atp3203
Rp3204
I5015
tp3205
a(g1
((lp3206
I67144223
aI16812055
atp3207
Rp3208
I5015
tp3209
a(g1
((lp3210
I67144223
aI16783383
atp3211
Rp3212
I5015
tp3213
a(g1
((lp3214
I67144223
aI16795671
atp3215
Rp3216
I5015
tp3217
a(g1
((lp3218
I134236965
aI2131213
atp3219
Rp3220
I5016
tp3221
a(g1
((lp3222
I134236965
aI2114829
atp3223
Rp3224
I5016
tp3225
a(g1
((lp3226
I134236965
aI2102541
atp3227
Rp3228
I5016
tp3229
a(g1
((lp3230
I134253349
aI2131213
atp3231
Rp3232
I5016
tp3233
a(g1
((lp3234
I134253349
aI2114829
atp3235
Rp3236
I5016
tp3237
a(g1
((lp3238
I134253349
aI2102541
atp3239
Rp3240
I5016
tp3241
a(g1
((lp3242
I134224677
aI2131213
atp3243
Rp3244
I5016
tp3245
a(g1
((lp3246
I134224677
aI2114829
atp3247
Rp3248
I5016
tp3249
a(g1
((lp3250
I134224677
aI2102541
atp3251
Rp3252
I5016
tp3253
a(g1
((lp3254
I1082379
aI134236965
atp3255
Rp3256
I5019
tp3257
a(g1
((lp3258
I1053707
aI134236965
atp3259
Rp3260
I5019
tp3261
a(g1
((lp3262
I1065995
aI134236965
atp3263
Rp3264
I5019
tp3265
a(g1
((lp3266
I1082379
aI134253349
atp3267
Rp3268
I5019
tp3269
a(g1
((lp3270
I1053707
aI134253349
atp3271
Rp3272
I5019
tp3273
a(g1
((lp3274
I1065995
aI134253349
atp3275
Rp3276
I5019
tp3277
a(g1
((lp3278
I1082379
aI134224677
atp3279
Rp3280
I5019
tp3281
a(g1
((lp3282
I1053707
aI134224677
atp3283
Rp3284
I5019
tp3285
a(g1
((lp3286
I1065995
aI134224677
atp3287
Rp3288
I5019
tp3289
a(g1
((lp3290
I134236965
aI541447
atp3291
Rp3292
I5021
tp3293
a(g1
((lp3294
I134236965
aI529159
atp3295
Rp3296
I5021
tp3297
a(g1
((lp3298
I134236965
aI557831
atp3299
Rp3300
I5021
tp3301
a(g1
((lp3302
I134253349
aI541447
atp3303
Rp3304
I5021
tp3305
a(g1
((lp3306
I134224677
aI541447
atp3307
Rp3308
I5021
tp3309
a(g1
((lp3310
I134253349
aI529159
atp3311
Rp3312
I5021
tp3313
a(g1
((lp3314
I134224677
aI529159
atp3315
Rp3316
I5021
tp3317
a(g1
((lp3318
I8423187
aI67127839
atp3319
Rp3320
I5021
tp3321
a(g1
((lp3322
I8406803
aI67127839
atp3323
Rp3324
I5021
tp3325
a(g1
((lp3326
I8394515
aI67127839
atp3327
Rp3328
I5021
tp3329
a(g1
((lp3330
I134253349
aI557831
atp3331
Rp3332
I5021
tp3333
a(g1
((lp3334
I8423187
aI67115551
atp3335
Rp3336
I5021
tp3337
a(g1
((lp3338
I8406803
aI67115551
atp3339
Rp3340
I5021
tp3341
a(g1
((lp3342
I8394515
aI67115551
atp3343
Rp3344
I5021
tp3345
a(g1
((lp3346
I8423187
aI67144223
atp3347
Rp3348
I5021
tp3349
a(g1
((lp3350
I134224677
aI557831
atp3351
Rp3352
I5021
tp3353
a(g1
((lp3354
I8406803
aI67144223
atp3355
Rp3356
I5021
tp3357
a(g1
((lp3358
I8394515
aI67144223
atp3359
Rp3360
I5021
tp3361
a(g1
((lp3362
I134236965
aI266757
atp3363
Rp3364
I5023
tp3365
a(g1
((lp3366
I147715
aI134236965
atp3367
Rp3368
I5023
tp3369
a(g1
((lp3370
I164099
aI134236965
atp3371
Rp3372
I5023
tp3373
a(g1
((lp3374
I135427
aI134236965
atp3375
Rp3376
I5023
tp3377
a(g1
((lp3378
I134236965
aI295429
atp3379
Rp3380
I5023
tp3381
a(g1
((lp3382
I134236965
aI279045
atp3383
Rp3384
I5023
tp3385
a(g1
((lp3386
I266757
aI134253349
atp3387
Rp3388
I5023
tp3389
a(g1
((lp3390
I266757
aI134224677
atp3391
Rp3392
I5023
tp3393
a(g1
((lp3394
I147715
aI134253349
atp3395
Rp3396
I5023
tp3397
a(g1
((lp3398
I147715
aI134224677
atp3399
Rp3400
I5023
tp3401
a(g1
((lp3402
I164099
aI134253349
atp3403
Rp3404
I5023
tp3405
a(g1
((lp3406
I135427
aI134253349
atp3407
Rp3408
I5023
tp3409
a(g1
((lp3410
I134253349
aI295429
atp3411
Rp3412
I5023
tp3413
a(g1
((lp3414
I134253349
aI279045
atp3415
Rp3416
I5023
tp3417
a(g1
((lp3418
I164099
aI134224677
atp3419
Rp3420
I5023
tp3421
a(g1
((lp3422
I135427
aI134224677
atp3423
Rp3424
I5023
tp3425
a(g1
((lp3426
I134224677
aI295429
atp3427
Rp3428
I5023
tp3429
a(g1
((lp3430
I134224677
aI279045
atp3431
Rp3432
I5023
tp3433
a(g1
((lp3434
I33573149
aI16812055
atp3435
Rp3436
I5026
tp3437
a(g1
((lp3438
I33573149
aI16783383
atp3439
Rp3440
I5026
tp3441
a(g1
((lp3442
I33573149
aI16795671
atp3443
Rp3444
I5026
tp3445
a(g1
((lp3446
I33560861
aI16812055
atp3447
Rp3448
I5026
tp3449
a(g1
((lp3450
I33560861
aI16783383
atp3451
Rp3452
I5026
tp3453
a(g1
((lp3454
I33560861
aI16795671
atp3455
Rp3456
I5026
tp3457
a(g1
((lp3458
I33589533
aI16812055
atp3459
Rp3460
I5026
tp3461
a(g1
((lp3462
I33589533
aI16783383
atp3463
Rp3464
I5026
tp3465
a(g1
((lp3466
I33589533
aI16795671
atp3467
Rp3468
I5026
tp3469
a(g1
((lp3470
I2131213
aI67127839
atp3471
Rp3472
I5029
tp3473
a(g1
((lp3474
I2114829
aI67127839
atp3475
Rp3476
I5029
tp3477
a(g1
((lp3478
I2102541
aI67127839
atp3479
Rp3480
I5029
tp3481
a(g1
((lp3482
I2131213
aI67115551
atp3483
Rp3484
I5029
tp3485
a(g1
((lp3486
I2114829
aI67115551
atp3487
Rp3488
I5029
tp3489
a(g1
((lp3490
I2102541
aI67115551
atp3491
Rp3492
I5029
tp3493
a(g1
((lp3494
I2131213
aI67144223
atp3495
Rp3496
I5029
tp3497
a(g1
((lp3498
I2114829
aI67144223
atp3499
Rp3500
I5029
tp3501
a(g1
((lp3502
I2102541
aI67144223
atp3503
Rp3504
I5029
tp3505
a(g1
((lp3506
I8423187
aI33573149
atp3507
Rp3508
I5032
tp3509
a(g1
((lp3510
I8406803
aI33573149
atp3511
Rp3512
I5032
tp3513
a(g1
((lp3514
I8394515
aI33573149
atp3515
Rp3516
I5032
tp3517
a(g1
((lp3518
I8423187
aI33560861
atp3519
Rp3520
I5032
tp3521
a(g1
((lp3522
I8406803
aI33560861
atp3523
Rp3524
I5032
tp3525
a(g1
((lp3526
I8394515
aI33560861
atp3527
Rp3528
I5032
tp3529
a(g1
((lp3530
I1082379
aI67127839
atp3531
Rp3532
I5032
tp3533
a(g1
((lp3534
I1053707
aI67127839
atp3535
Rp3536
I5032
tp3537
a(g1
((lp3538
I1065995
aI67127839
atp3539
Rp3540
I5032
tp3541
a(g1
((lp3542
I1082379
aI67115551
atp3543
Rp3544
I5032
tp3545
a(g1
((lp3546
I1053707
aI67115551
atp3547
Rp3548
I5032
tp3549
a(g1
((lp3550
I1065995
aI67115551
atp3551
Rp3552
I5032
tp3553
a(g1
((lp3554
I8423187
aI33589533
atp3555
Rp3556
I5032
tp3557
a(g1
((lp3558
I1082379
aI67144223
atp3559
Rp3560
I5032
tp3561
a(g1
((lp3562
I8406803
aI33589533
atp3563
Rp3564
I5032
tp3565
a(g1
((lp3566
I8394515
aI33589533
atp3567
Rp3568
I5032
tp3569
a(g1
((lp3570
I1053707
aI67144223
atp3571
Rp3572
I5032
tp3573
a(g1
((lp3574
I1065995
aI67144223
atp3575
Rp3576
I5032
tp3577
a(g1
((lp3578
I67127839
aI541447
atp3579
Rp3580
I5034
tp3581
a(g1
((lp3582
I67115551
aI541447
atp3583
Rp3584
I5034
tp3585
a(g1
((lp3586
I67144223
aI541447
atp3587
Rp3588
I5034
tp3589
a(g1
((lp3590
I67127839
aI529159
atp3591
Rp3592
I5034
tp3593
a(g1
((lp3594
I67115551
aI529159
atp3595
Rp3596
I5034
tp3597
a(g1
((lp3598
I67144223
aI529159
atp3599
Rp3600
I5034
tp3601
a(g1
((lp3602
I557831
aI67127839
atp3603
Rp3604
I5034
tp3605
a(g1
((lp3606
I557831
aI67115551
atp3607
Rp3608
I5034
tp3609
a(g1
((lp3610
I67144223
aI557831
atp3611
Rp3612
I5034
tp3613
a(g1
((lp3614
I266757
aI67127839
atp3615
Rp3616
I5035
tp3617
a(g1
((lp3618
I266757
aI67115551
atp3619
Rp3620
I5035
tp3621
a(g1
((lp3622
I266757
aI67144223
atp3623
Rp3624
I5035
tp3625
a(g1
((lp3626
I295429
aI67127839
atp3627
Rp3628
I5035
tp3629
a(g1
((lp3630
I279045
aI67127839
atp3631
Rp3632
I5035
tp3633
a(g1
((lp3634
I295429
aI67115551
atp3635
Rp3636
I5035
tp3637
a(g1
((lp3638
I279045
aI67115551
atp3639
Rp3640
I5035
tp3641
a(g1
((lp3642
I295429
aI67144223
atp3643
Rp3644
I5035
tp3645
a(g1
((lp3646
I279045
aI67144223
atp3647
Rp3648
I5035
tp3649
a(g1
((lp3650
I147715
aI67127839
atp3651
Rp3652
I5036
tp3653
a(g1
((lp3654
I164099
aI67127839
atp3655
Rp3656
I5036
tp3657
a(g1
((lp3658
I135427
aI67127839
atp3659
Rp3660
I5036
tp3661
a(g1
((lp3662
I147715
aI67115551
atp3663
Rp3664
I5036
tp3665
a(g1
((lp3666
I147715
aI67144223
atp3667
Rp3668
I5036
tp3669
a(g1
((lp3670
I164099
aI67115551
atp3671
Rp3672
I5036
tp3673
a(g1
((lp3674
I135427
aI67115551
atp3675
Rp3676
I5036
tp3677
a(g1
((lp3678
I164099
aI67144223
atp3679
Rp3680
I5036
tp3681
a(g1
((lp3682
I135427
aI67144223
atp3683
Rp3684
I5036
tp3685
a(g1
((lp3686
I33573149
aI2131213
atp3687
Rp3688
I5040
tp3689
a(g1
((lp3690
I33573149
aI2114829
atp3691
Rp3692
I5040
tp3693
a(g1
((lp3694
I33573149
aI2102541
atp3695
Rp3696
I5040
tp3697
a(g1
((lp3698
I33560861
aI2131213
atp3699
Rp3700
I5040
tp3701
a(g1
((lp3702
I33560861
aI2114829
atp3703
Rp3704
I5040
tp3705
a(g1
((lp3706
I33560861
aI2102541
atp3707
Rp3708
I5040
tp3709
a(g1
((lp3710
I33589533
aI2131213
atp3711
Rp3712
I5040
tp3713
a(g1
((lp3714
I33589533
aI2114829
atp3715
Rp3716
I5040
tp3717
a(g1
((lp3718
I33589533
aI2102541
atp3719
Rp3720
I5040
tp3721
a(g1
((lp3722
I8423187
aI16812055
atp3723
Rp3724
I5041
tp3725
a(g1
((lp3726
I8423187
aI16783383
atp3727
Rp3728
I5041
tp3729
a(g1
((lp3730
I8423187
aI16795671
atp3731
Rp3732
I5041
tp3733
a(g1
((lp3734
I8406803
aI16812055
atp3735
Rp3736
I5041
tp3737
a(g1
((lp3738
I8394515
aI16812055
atp3739
Rp3740
I5041
tp3741
a(g1
((lp3742
I8406803
aI16783383
atp3743
Rp3744
I5041
tp3745
a(g1
((lp3746
I8406803
aI16795671
atp3747
Rp3748
I5041
tp3749
a(g1
((lp3750
I8394515
aI16783383
atp3751
Rp3752
I5041
tp3753
a(g1
((lp3754
I8394515
aI16795671
atp3755
Rp3756
I5041
tp3757
a(g1
((lp3758
I1082379
aI33573149
atp3759
Rp3760
I5043
tp3761
a(g1
((lp3762
I1053707
aI33573149
atp3763
Rp3764
I5043
tp3765
a(g1
((lp3766
I1065995
aI33573149
atp3767
Rp3768
I5043
tp3769
a(g1
((lp3770
I1082379
aI33560861
atp3771
Rp3772
I5043
tp3773
a(g1
((lp3774
I1053707
aI33560861
atp3775
Rp3776
I5043
tp3777
a(g1
((lp3778
I1065995
aI33560861
atp3779
Rp3780
I5043
tp3781
a(g1
((lp3782
I1082379
aI33589533
atp3783
Rp3784
I5043
tp3785
a(g1
((lp3786
I1053707
aI33589533
atp3787
Rp3788
I5043
tp3789
a(g1
((lp3790
I1065995
aI33589533
atp3791
Rp3792
I5043
tp3793
a(g1
((lp3794
I33573149
aI541447
atp3795
Rp3796
I5045
tp3797
a(g1
((lp3798
I33560861
aI541447
atp3799
Rp3800
I5045
tp3801
a(g1
((lp3802
I33589533
aI541447
atp3803
Rp3804
I5045
tp3805
a(g1
((lp3806
I33573149
aI529159
atp3807
Rp3808
I5045
tp3809
a(g1
((lp3810
I33573149
aI557831
atp3811
Rp3812
I5045
tp3813
a(g1
((lp3814
I33560861
aI529159
atp3815
Rp3816
I5045
tp3817
a(g1
((lp3818
I33560861
aI557831
atp3819
Rp3820
I5045
tp3821
a(g1
((lp3822
I33589533
aI529159
atp3823
Rp3824
I5045
tp3825
a(g1
((lp3826
I33589533
aI557831
atp3827
Rp3828
I5045
tp3829
a(g1
((lp3830
I33573149
aI266757
atp3831
Rp3832
I5046
tp3833
a(g1
((lp3834
I33573149
aI295429
atp3835
Rp3836
I5046
tp3837
a(g1
((lp3838
I33573149
aI279045
atp3839
Rp3840
I5046
tp3841
a(g1
((lp3842
I33560861
aI266757
atp3843
Rp3844
I5046
tp3845
a(g1
((lp3846
I33560861
aI295429
atp3847
Rp3848
I5046
tp3849
a(g1
((lp3850
I33560861
aI279045
atp3851
Rp3852
I5046
tp3853
a(g1
((lp3854
I266757
aI33589533
atp3855
Rp3856
I5046
tp3857
a(g1
((lp3858
I33589533
aI295429
atp3859
Rp3860
I5046
tp3861
a(g1
((lp3862
I33589533
aI279045
atp3863
Rp3864
I5046
tp3865
a(g1
((lp3866
I147715
aI33573149
atp3867
Rp3868
I5047
tp3869
a(g1
((lp3870
I164099
aI33573149
atp3871
Rp3872
I5047
tp3873
a(g1
((lp3874
I135427
aI33573149
atp3875
Rp3876
I5047
tp3877
a(g1
((lp3878
I147715
aI33560861
atp3879
Rp3880
I5047
tp3881
a(g1
((lp3882
I164099
aI33560861
atp3883
Rp3884
I5047
tp3885
a(g1
((lp3886
I135427
aI33560861
atp3887
Rp3888
I5047
tp3889
a(g1
((lp3890
I147715
aI33589533
atp3891
Rp3892
I5047
tp3893
a(g1
((lp3894
I164099
aI33589533
atp3895
Rp3896
I5047
tp3897
a(g1
((lp3898
I135427
aI33589533
atp3899
Rp3900
I5047
tp3901
a(g1
((lp3902
I2131213
aI16812055
atp3903
Rp3904
I5049
tp3905
a(g1
((lp3906
I2114829
aI16812055
atp3907
Rp3908
I5049
tp3909
a(g1
((lp3910
I2102541
aI16812055
atp3911
Rp3912
I5049
tp3913
a(g1
((lp3914
I2131213
aI16783383
atp3915
Rp3916
I5049
tp3917
a(g1
((lp3918
I2131213
aI16795671
atp3919
Rp3920
I5049
tp3921
a(g1
((lp3922
I2114829
aI16783383
atp3923
Rp3924
I5049
tp3925
a(g1
((lp3926
I2114829
aI16795671
atp3927
Rp3928
I5049
tp3929
a(g1
((lp3930
I2102541
aI16783383
atp3931
Rp3932
I5049
tp3933
a(g1
((lp3934
I2102541
aI16795671
atp3935
Rp3936
I5049
tp3937
a(g1
((lp3938
I1082379
aI16812055
atp3939
Rp3940
I5052
tp3941
a(g1
((lp3942
I1082379
aI16783383
atp3943
Rp3944
I5052
tp3945
a(g1
((lp3946
I1082379
aI16795671
atp3947
Rp3948
I5052
tp3949
a(g1
((lp3950
I1053707
aI16812055
atp3951
Rp3952
I5052
tp3953
a(g1
((lp3954
I1065995
aI16812055
atp3955
Rp3956
I5052
tp3957
a(g1
((lp3958
I1053707
aI16783383
atp3959
Rp3960
I5052
tp3961
a(g1
((lp3962
I1053707
aI16795671
atp3963
Rp3964
I5052
tp3965
a(g1
((lp3966
I1065995
aI16783383
atp3967
Rp3968
I5052
tp3969
a(g1
((lp3970
I1065995
aI16795671
atp3971
Rp3972
I5052
tp3973
a(g1
((lp3974
I16812055
aI541447
atp3975
Rp3976
I5054
tp3977
a(g1
((lp3978
I16783383
aI541447
atp3979
Rp3980
I5054
tp3981
a(g1
((lp3982
I16795671
aI541447
atp3983
Rp3984
I5054
tp3985
a(g1
((lp3986
I16812055
aI529159
atp3987
Rp3988
I5054
tp3989
a(g1
((lp3990
I16783383
aI529159
atp3991
Rp3992
I5054
tp3993
a(g1
((lp3994
I16795671
aI529159
atp3995
Rp3996
I5054
tp3997
a(g1
((lp3998
I16812055
aI557831
atp3999
Rp4000
I5054
tp4001
a(g1
((lp4002
I16783383
aI557831
atp4003
Rp4004
I5054
tp4005
a(g1
((lp4006
I16795671
aI557831
atp4007
Rp4008
I5054
tp4009
a(g1
((lp4010
I266757
aI16812055
atp4011
Rp4012
I5055
tp4013
a(g1
((lp4014
I266757
aI16783383
atp4015
Rp4016
I5055
tp4017
a(g1
((lp4018
I266757
aI16795671
atp4019
Rp4020
I5055
tp4021
a(g1
((lp4022
I295429
aI16812055
atp4023
Rp4024
I5055
tp4025
a(g1
((lp4026
I279045
aI16812055
atp4027
Rp4028
I5055
tp4029
a(g1
((lp4030
I295429
aI16783383
atp4031
Rp4032
I5055
tp4033
a(g1
((lp4034
I295429
aI16795671
atp4035
Rp4036
I5055
tp4037
a(g1
((lp4038
I279045
aI16783383
atp4039
Rp4040
I5055
tp4041
a(g1
((lp4042
I279045
aI16795671
atp4043
Rp4044
I5055
tp4045
a(g1
((lp4046
I147715
aI16812055
atp4047
Rp4048
I5056
tp4049
a(g1
((lp4050
I147715
aI16783383
atp4051
Rp4052
I5056
tp4053
a(g1
((lp4054
I147715
aI16795671
atp4055
Rp4056
I5056
tp4057
a(g1
((lp4058
I8423187
aI2131213
atp4059
Rp4060
I5056
tp4061
a(g1
((lp4062
I8423187
aI2114829
atp4063
Rp4064
I5056
tp4065
a(g1
((lp4066
I8423187
aI2102541
atp4067
Rp4068
I5056
tp4069
a(g1
((lp4070
I164099
aI16812055
atp4071
Rp4072
I5056
tp4073
a(g1
((lp4074
I135427
aI16812055
atp4075
Rp4076
I5056
tp4077
a(g1
((lp4078
I8406803
aI2131213
atp4079
Rp4080
I5056
tp4081
a(g1
((lp4082
I8406803
aI2114829
atp4083
Rp4084
I5056
tp4085
a(g1
((lp4086
I8406803
aI2102541
atp4087
Rp4088
I5056
tp4089
a(g1
((lp4090
I164099
aI16783383
atp4091
Rp4092
I5056
tp4093
a(g1
((lp4094
I164099
aI16795671
atp4095
Rp4096
I5056
tp4097
a(g1
((lp4098
I8394515
aI2131213
atp4099
Rp4100
I5056
tp4101
a(g1
((lp4102
I8394515
aI2114829
atp4103
Rp4104
I5056
tp4105
a(g1
((lp4106
I8394515
aI2102541
atp4107
Rp4108
I5056
tp4109
a(g1
((lp4110
I135427
aI16783383
atp4111
Rp4112
I5056
tp4113
a(g1
((lp4114
I135427
aI16795671
atp4115
Rp4116
I5056
tp4117
a(g1
((lp4118
I1082379
aI8423187
atp4119
Rp4120
I5059
tp4121
a(g1
((lp4122
I1053707
aI8423187
atp4123
Rp4124
I5059
tp4125
a(g1
((lp4126
I1065995
aI8423187
atp4127
Rp4128
I5059
tp4129
a(g1
((lp4130
I8406803
aI1082379
atp4131
Rp4132
I5059
tp4133
a(g1
((lp4134
I8394515
aI1082379
atp4135
Rp4136
I5059
tp4137
a(g1
((lp4138
I1053707
aI8406803
atp4139
Rp4140
I5059
tp4141
a(g1
((lp4142
I1065995
aI8406803
atp4143
Rp4144
I5059
tp4145
a(g1
((lp4146
I1053707
aI8394515
atp4147
Rp4148
I5059
tp4149
a(g1
((lp4150
I1065995
aI8394515
atp4151
Rp4152
I5059
tp4153
a(g1
((lp4154
I8423187
aI541447
atp4155
Rp4156
I5061
tp4157
a(g1
((lp4158
I8406803
aI541447
atp4159
Rp4160
I5061
tp4161
a(g1
((lp4162
I8394515
aI541447
atp4163
Rp4164
I5061
tp4165
a(g1
((lp4166
I8423187
aI529159
atp4167
Rp4168
I5061
tp4169
a(g1
((lp4170
I8406803
aI529159
atp4171
Rp4172
I5061
tp4173
a(g1
((lp4174
I8394515
aI529159
atp4175
Rp4176
I5061
tp4177
a(g1
((lp4178
I8423187
aI557831
atp4179
Rp4180
I5061
tp4181
a(g1
((lp4182
I8406803
aI557831
atp4183
Rp4184
I5061
tp4185
a(g1
((lp4186
I8394515
aI557831
atp4187
Rp4188
I5061
tp4189
a(g1
((lp4190
I8423187
aI266757
atp4191
Rp4192
I5063
tp4193
a(g1
((lp4194
I8406803
aI266757
atp4195
Rp4196
I5063
tp4197
a(g1
((lp4198
I8394515
aI266757
atp4199
Rp4200
I5063
tp4201
a(g1
((lp4202
I8423187
aI147715
atp4203
Rp4204
I5063
tp4205
a(g1
((lp4206
I8406803
aI147715
atp4207
Rp4208
I5063
tp4209
a(g1
((lp4210
I8394515
aI147715
atp4211
Rp4212
I5063
tp4213
a(g1
((lp4214
I164099
aI8423187
atp4215
Rp4216
I5063
tp4217
a(g1
((lp4218
I135427
aI8423187
atp4219
Rp4220
I5063
tp4221
a(g1
((lp4222
I8423187
aI295429
atp4223
Rp4224
I5063
tp4225
a(g1
((lp4226
I8423187
aI279045
atp4227
Rp4228
I5063
tp4229
a(g1
((lp4230
I164099
aI8406803
atp4231
Rp4232
I5063
tp4233
a(g1
((lp4234
I135427
aI8406803
atp4235
Rp4236
I5063
tp4237
a(g1
((lp4238
I8406803
aI295429
atp4239
Rp4240
I5063
tp4241
a(g1
((lp4242
I8406803
aI279045
atp4243
Rp4244
I5063
tp4245
a(g1
((lp4246
I8394515
aI164099
atp4247
Rp4248
I5063
tp4249
a(g1
((lp4250
I135427
aI8394515
atp4251
Rp4252
I5063
tp4253
a(g1
((lp4254
I8394515
aI295429
atp4255
Rp4256
I5063
tp4257
a(g1
((lp4258
I8394515
aI279045
atp4259
Rp4260
I5063
tp4261
a(g1
((lp4262
I1082379
aI2131213
atp4263
Rp4264
I5069
tp4265
a(g1
((lp4266
I1082379
aI2114829
atp4267
Rp4268
I5069
tp4269
a(g1
((lp4270
I1082379
aI2102541
atp4271
Rp4272
I5069
tp4273
a(g1
((lp4274
I1053707
aI2131213
atp4275
Rp4276
I5069
tp4277
a(g1
((lp4278
I1065995
aI2131213
atp4279
Rp4280
I5069
tp4281
a(g1
((lp4282
I1053707
aI2114829
atp4283
Rp4284
I5069
tp4285
a(g1
((lp4286
I1065995
aI2114829
atp4287
Rp4288
I5069
tp4289
a(g1
((lp4290
I1053707
aI2102541
atp4291
Rp4292
I5069
tp4293
a(g1
((lp4294
I1065995
aI2102541
atp4295
Rp4296
I5069
tp4297
a(g1
((lp4298
I2131213
aI541447
atp4299
Rp4300
I5071
tp4301
a(g1
((lp4302
I2114829
aI541447
atp4303
Rp4304
I5071
tp4305
a(g1
((lp4306
I2102541
aI541447
atp4307
Rp4308
I5071
tp4309
a(g1
((lp4310
I2131213
aI529159
atp4311
Rp4312
I5071
tp4313
a(g1
((lp4314
I2114829
aI529159
atp4315
Rp4316
I5071
tp4317
a(g1
((lp4318
I2102541
aI529159
atp4319
Rp4320
I5071
tp4321
a(g1
((lp4322
I2131213
aI557831
atp4323
Rp4324
I5071
tp4325
a(g1
((lp4326
I2114829
aI557831
atp4327
Rp4328
I5071
tp4329
a(g1
((lp4330
I2102541
aI557831
atp4331
Rp4332
I5071
tp4333
a(g1
((lp4334
I266757
aI2131213
atp4335
Rp4336
I5073
tp4337
a(g1
((lp4338
I266757
aI2114829
atp4339
Rp4340
I5073
tp4341
a(g1
((lp4342
I266757
aI2102541
atp4343
Rp4344
I5073
tp4345
a(g1
((lp4346
I147715
aI2131213
atp4347
Rp4348
I5073
tp4349
a(g1
((lp4350
I147715
aI2114829
atp4351
Rp4352
I5073
tp4353
a(g1
((lp4354
I147715
aI2102541
atp4355
Rp4356
I5073
tp4357
a(g1
((lp4358
I164099
aI2131213
atp4359
Rp4360
I5073
tp4361
a(g1
((lp4362
I164099
aI2114829
atp4363
Rp4364
I5073
tp4365
a(g1
((lp4366
I164099
aI2102541
atp4367
Rp4368
I5073
tp4369
a(g1
((lp4370
I135427
aI2131213
atp4371
Rp4372
I5073
tp4373
a(g1
((lp4374
I2131213
aI295429
atp4375
Rp4376
I5073
tp4377
a(g1
((lp4378
I2131213
aI279045
atp4379
Rp4380
I5073
tp4381
a(g1
((lp4382
I135427
aI2114829
atp4383
Rp4384
I5073
tp4385
a(g1
((lp4386
I2114829
aI295429
atp4387
Rp4388
I5073
tp4389
a(g1
((lp4390
I2114829
aI279045
atp4391
Rp4392
I5073
tp4393
a(g1
((lp4394
I135427
aI2102541
atp4395
Rp4396
I5073
tp4397
a(g1
((lp4398
I295429
aI2102541
atp4399
Rp4400
I5073
tp4401
a(g1
((lp4402
I279045
aI2102541
atp4403
Rp4404
I5073
tp4405
a(g1
((lp4406
I1082379
aI541447
atp4407
Rp4408
I5074
tp4409
a(g1
((lp4410
I1053707
aI541447
atp4411
Rp4412
I5074
tp4413
a(g1
((lp4414
I1065995
aI541447
atp4415
Rp4416
I5074
tp4417
a(g1
((lp4418
I1082379
aI529159
atp4419
Rp4420
I5074
tp4421
a(g1
((lp4422
I1053707
aI529159
atp4423
Rp4424
I5074
tp4425
a(g1
((lp4426
I1065995
aI529159
atp4427
Rp4428
I5074
tp4429
a(g1
((lp4430
I1082379
aI557831
atp4431
Rp4432
I5074
tp4433
a(g1
((lp4434
I1053707
aI557831
atp4435
Rp4436
I5074
tp4437
a(g1
((lp4438
I1065995
aI557831
atp4439
Rp4440
I5074
tp4441
a(g1
((lp4442
I1082379
aI266757
atp4443
Rp4444
I5076
tp4445
a(g1
((lp4446
I1053707
aI266757
atp4447
Rp4448
I5076
tp4449
a(g1
((lp4450
I1065995
aI266757
atp4451
Rp4452
I5076
tp4453
a(g1
((lp4454
I1082379
aI147715
atp4455
Rp4456
I5076
tp4457
a(g1
((lp4458
I1053707
aI147715
atp4459
Rp4460
I5076
tp4461
a(g1
((lp4462
I1065995
aI147715
atp4463
Rp4464
I5076
tp4465
a(g1
((lp4466
I164099
aI1082379
atp4467
Rp4468
I5076
tp4469
a(g1
((lp4470
I135427
aI1082379
atp4471
Rp4472
I5076
tp4473
a(g1
((lp4474
I1082379
aI295429
atp4475
Rp4476
I5076
tp4477
a(g1
((lp4478
I1082379
aI279045
atp4479
Rp4480
I5076
tp4481
a(g1
((lp4482
I1053707
aI164099
atp4483
Rp4484
I5076
tp4485
a(g1
((lp4486
I1065995
aI164099
atp4487
Rp4488
I5076
tp4489
a(g1
((lp4490
I1053707
aI135427
atp4491
Rp4492
I5076
tp4493
a(g1
((lp4494
I1065995
aI135427
atp4495
Rp4496
I5076
tp4497
a(g1
((lp4498
I1053707
aI295429
atp4499
Rp4500
I5076
tp4501
a(g1
((lp4502
I1065995
aI295429
atp4503
Rp4504
I5076
tp4505
a(g1
((lp4506
I1053707
aI279045
atp4507
Rp4508
I5076
tp4509
a(g1
((lp4510
I1065995
aI279045
atp4511
Rp4512
I5076
tp4513
a.