(lp0
(c__builtin__
frozenset
p1
((lp2
I16783383
aI16812055
atp3
Rp4
F1265.364
tp5
a(g1
((lp6
I16783383
aI16795671
atp7
Rp8
F1314.272
tp9
a(g1
((lp10
I4212241
aI4204049
atp11
Rp12
F1377.868
tp13
a(g1
((lp14
I4204049
aI4199953
atp15
Rp16
F1401.28
tp17
a(g1
((lp18
I16795671
aI16812055
atp19
Rp20
F1402.076
tp21
a(g1
((lp22
I4212241
aI4199953
atp23
Rp24
F1416.612
tp25
a(g1
((lp26
I557831
aI541447
atp27
Rp28
F1566.764
tp29
a(g1
((lp30
I533255
aI541447
atp31
Rp32
F1589.764
tp33
a(g1
((lp34
I557831
aI533255
atp35
Rp36
F1647.708
tp37
a(g1
((lp38
I557831
aI16812055
atp39
Rp40
F2333.436
tp41
a(g1
((lp42
I4204049
aI16812055
atp43
Rp44
F2425.844
tp45
a(g1
((lp46
I4199953
aI16783383
atp47
Rp48
F2450.324
tp49
a(g1
((lp50
I4212241
aI16783383
atp51
Rp52
F2462.456
tp53
a(g1
((lp54
I4199953
aI16795671
atp55
Rp56
F2470.12
tp57
a(g1
((lp58
I4204049
aI533255
atp59
Rp60
F2470.496
tp61
a(g1
((lp62
I557831
aI16795671
atp63
Rp64
F2482.552
tp65
a(g1
((lp66
I16783383
aI541447
atp67
Rp68
F2483.296
tp69
a(g1
((lp70
I4212241
aI16812055
atp71
Rp72
F2494.688
tp73
a(g1
((lp74
I533255
aI16812055
atp75
Rp76
F2506.26
tp77
a(g1
((lp78
I4204049
aI16783383
atp79
Rp80
F2510.46
tp81
a(g1
((lp82
I16795671
aI541447
atp83
Rp84
F2531.072
tp85
a(g1
((lp86
I541447
aI16812055
atp87
Rp88
F2542.056
tp89
a(g1
((lp90
I4199953
aI16812055
atp91
Rp92
F2551.496
tp93
a(g1
((lp94
I4204049
aI16795671
atp95
Rp96
F2554.612
tp97
a(g1
((lp98
I4212241
aI16795671
atp99
Rp100
F2558.1
tp101
a(g1
((lp102
I533255
aI16795671
atp103
Rp104
F2568.184
tp105
a(g1
((lp106
I16783383
aI533255
atp107
Rp108
F2578.576
tp109
a(g1
((lp110
I4204049
aI557831
atp111
Rp112
F2580.94
tp113
a(g1
((lp114
I4199953
aI533255
atp115
Rp116
F2583.172
tp117
a(g1
((lp118
I557831
aI16783383
atp119
Rp120
F2588.26
tp121
a(g1
((lp122
I4212241
aI557831
atp123
Rp124
F2590.52
tp125
a(g1
((lp126
I4199953
aI557831
atp127
Rp128
F2615.812
tp129
a(g1
((lp130
I4212241
aI541447
atp131
Rp132
F2615.816
tp133
a(g1
((lp134
I4204049
aI541447
atp135
Rp136
F2640.212
tp137
a(g1
((lp138
I4199953
aI541447
atp139
Rp140
F2680.604
tp141
a(g1
((lp142
I4212241
aI533255
atp143
Rp144
F2681.076
tp145
a(g1
((lp146
I268471337
aI268454953
atp147
Rp148
F2799.172
tp149
a(g1
((lp150
I268442665
aI268471337
atp151
Rp152
F2869.34
tp153
a(g1
((lp154
I268471337
aI268446761
atp155
Rp156
F2911.536
tp157
a(g1
((lp158
I134253349
aI134228773
atp159
Rp160
F2925.964
tp161
a(g1
((lp162
I268442665
aI268446761
atp163
Rp164
F2931.18
tp165
a(g1
((lp166
I268442665
aI268454953
atp167
Rp168
F2939.136
tp169
a(g1
((lp170
I268454953
aI268446761
atp171
Rp172
F2945.712
tp173
a(g1
((lp174
I134224677
aI134236965
atp175
Rp176
F3003.816
tp177
a(g1
((lp178
I134253349
aI134224677
atp179
Rp180
F3033.828
tp181
a(g1
((lp182
I134253349
aI134236965
atp183
Rp184
F3047.068
tp185
a(g1
((lp186
I134224677
aI134228773
atp187
Rp188
F3079.44
tp189
a(g1
((lp190
I134228773
aI134236965
atp191
Rp192
F3093.26
tp193
a(g1
((lp194
I67119647
aI67115551
atp195
Rp196
F3124.692
tp197
a(g1
((lp198
I67127839
aI67144223
atp199
Rp200
F3148.78
tp201
a(g1
((lp202
I67115551
aI67127839
atp203
Rp204
F3189.66
tp205
a(g1
((lp206
I67119647
aI67127839
atp207
Rp208
F3198.716
tp209
a(g1
((lp210
I67115551
aI67144223
atp211
Rp212
F3214.904
tp213
a(g1
((lp214
I33560861
aI33573149
atp215
Rp216
F3219.416
tp217
a(g1
((lp218
I33564957
aI33589533
atp219
Rp220
F3263.176
tp221
a(g1
((lp222
I67119647
aI67144223
atp223
Rp224
F3264.796
tp225
a(g1
((lp226
I33589533
aI33560861
atp227
Rp228
F3271.008
tp229
a(g1
((lp230
I33573149
aI16783383
atp231
Rp232
F3271.704
tp233
a(g1
((lp234
I268442665
aI16783383
atp235
Rp236
F3279.148
tp237
a(g1
((lp238
I268471337
aI16812055
atp239
Rp240
F3279.976
tp241
a(g1
((lp242
I2131213
aI16812055
atp243
Rp244
F3287.064
tp245
a(g1
((lp246
I33564957
aI33560861
atp247
Rp248
F3295.888
tp249
a(g1
((lp250
I8423187
aI16812055
atp251
Rp252
F3299.976
tp253
a(g1
((lp254
I16783383
aI67115551
atp255
Rp256
F3300.116
tp257
a(g1
((lp258
I33573149
aI16812055
atp259
Rp260
F3302.62
tp261
a(g1
((lp262
I1053707
aI16783383
atp263
Rp264
F3304.06
tp265
a(g1
((lp266
I8394515
aI16812055
atp267
Rp268
F3304.472
tp269
a(g1
((lp270
I33560861
aI16783383
atp271
Rp272
F3324.264
tp273
a(g1
((lp274
I33564957
aI16783383
atp275
Rp276
F3328.464
tp277
a(g1
((lp278
I164099
aI16812055
atp279
Rp280
F3329.296
tp281
a(g1
((lp282
I1057803
aI16795671
atp283
Rp284
F3335.284
tp285
a(g1
((lp286
I134253349
aI16812055
atp287
Rp288
F3336.22
tp289
a(g1
((lp290
I8398611
aI16795671
atp291
Rp292
F3338.572
tp293
a(g1
((lp294
I67119647
aI16812055
atp295
Rp296
F3340.52
tp297
a(g1
((lp298
I67115551
aI16812055
atp299
Rp300
F3346.32
tp301
a(g1
((lp302
I33564957
aI33573149
atp303
Rp304
F3350.62
tp305
a(g1
((lp306
I4204049
aI268446761
atp307
Rp308
F3358.636
tp309
a(g1
((lp310
I1082379
aI16812055
atp311
Rp312
F3365.156
tp313
a(g1
((lp314
I135427
aI16783383
atp315
Rp316
F3365.352
tp317
a(g1
((lp318
I2106637
aI16795671
atp319
Rp320
F3365.624
tp321
a(g1
((lp322
I1065995
aI16795671
atp323
Rp324
F3369.544
tp325
a(g1
((lp326
I8398611
aI16783383
atp327
Rp328
F3370.868
tp329
a(g1
((lp330
I33589533
aI33573149
atp331
Rp332
F3371.184
tp333
a(g1
((lp334
I134253349
aI16795671
atp335
Rp336
F3373.352
tp337
a(g1
((lp338
I8406803
aI16812055
atp339
Rp340
F3376.628
tp341
a(g1
((lp342
I2106637
aI16783383
atp343
Rp344
F3376.768
tp345
a(g1
((lp346
I8406803
aI16783383
atp347
Rp348
F3377.132
tp349
a(g1
((lp350
I295429
aI16812055
atp351
Rp352
F3380.516
tp353
a(g1
((lp354
I2102541
aI16795671
atp355
Rp356
F3380.612
tp357
a(g1
((lp358
I1053707
aI16812055
atp359
Rp360
F3381.704
tp361
a(g1
((lp362
I8394515
aI16783383
atp363
Rp364
F3384.468
tp365
a(g1
((lp366
I2114829
aI16795671
atp367
Rp368
F3385.22
tp369
a(g1
((lp370
I69634
aI16783383
atp371
Rp372
F3385.928
tp373
a(g1
((lp374
I134224677
aI16783383
atp375
Rp376
F3386.38
tp377
a(g1
((lp378
I2114829
aI16783383
atp379
Rp380
F3387.212
tp381
a(g1
((lp382
I16795671
aI67127839
atp383
Rp384
F3392.816
tp385
a(g1
((lp386
I134236965
aI16795671
atp387
Rp388
F3393.848
tp389
a(g1
((lp390
I268446761
aI16783383
atp391
Rp392
F3399.064
tp393
a(g1
((lp394
I8423187
aI16795671
atp395
Rp396
F3400.844
tp397
a(g1
((lp398
I270853
aI16795671
atp399
Rp400
F3405.448
tp401
a(g1
((lp402
I33589533
aI16812055
atp403
Rp404
F3412.748
tp405
a(g1
((lp406
I8398611
aI16812055
atp407
Rp408
F3413.912
tp409
a(g1
((lp410
I2106637
aI16812055
atp411
Rp412
F3414.288
tp413
a(g1
((lp414
I1082379
aI16795671
atp415
Rp416
F3415.064
tp417
a(g1
((lp418
I268454953
aI16795671
atp419
Rp420
F3415.448
tp421
a(g1
((lp422
I2131213
aI16783383
atp423
Rp424
F3416.672
tp425
a(g1
((lp426
I268454953
aI16812055
atp427
Rp428
F3418.408
tp429
a(g1
((lp430
I33564957
aI16795671
atp431
Rp432
F3418.96
tp433
a(g1
((lp434
I8394515
aI16795671
atp435
Rp436
F3419.34
tp437
a(g1
((lp438
I33560861
aI16795671
atp439
Rp440
F3419.544
tp441
a(g1
((lp442
I8423187
aI16783383
atp443
Rp444
F3422.016
tp445
a(g1
((lp446
I270853
aI16783383
atp447
Rp448
F3422.86
tp449
a(g1
((lp450
I2102541
aI16783383
atp451
Rp452
F3423.664
tp453
a(g1
((lp454
I33589533
aI16795671
atp455
Rp456
F3424.972
tp457
a(g1
((lp458
I4204049
aI134228773
atp459
Rp460
F3425.448
tp461
a(g1
((lp462
I134224677
aI16812055
atp463
Rp464
F3427.128
tp465
a(g1
((lp466
I16812055
aI67127839
atp467
Rp468
F3428.732
tp469
a(g1
((lp470
I98306
aI16812055
atp471
Rp472
F3429.128
tp473
a(g1
((lp474
I1065995
aI16783383
atp475
Rp476
F3430.08
tp477
a(g1
((lp478
I16783383
aI67119647
atp479
Rp480
F3430.38
tp481
a(g1
((lp482
I16795671
aI67144223
atp483
Rp484
F3439.312
tp485
a(g1
((lp486
I33564957
aI16812055
atp487
Rp488
F3441.108
tp489
a(g1
((lp490
I134253349
aI16783383
atp491
Rp492
F3442.332
tp493
a(g1
((lp494
I1053707
aI16795671
atp495
Rp496
F3447.216
tp497
a(g1
((lp498
I8406803
aI16795671
atp499
Rp500
F3449.472
tp501
a(g1
((lp502
I134224677
aI16795671
atp503
Rp504
F3456.48
tp505
a(g1
((lp506
I295429
aI16795671
atp507
Rp508
F3456.616
tp509
a(g1
((lp510
I268454953
aI16783383
atp511
Rp512
F3456.736
tp513
a(g1
((lp514
I33573149
aI16795671
atp515
Rp516
F3457.604
tp517
a(g1
((lp518
I268442665
aI16795671
atp519
Rp520
F3460.164
tp521
a(g1
((lp522
I134236965
aI16812055
atp523
Rp524
F3463.096
tp525
a(g1
((lp526
I2131213
aI16795671
atp527
Rp528
F3463.836
tp529
a(g1
((lp530
I16783383
aI67144223
atp531
Rp532
F3465.504
tp533
a(g1
((lp534
I268446761
aI16795671
atp535
Rp536
F3469.708
tp537
a(g1
((lp538
I69634
aI16812055
atp539
Rp540
F3472.592
tp541
a(g1
((lp542
I67115551
aI16795671
atp543
Rp544
F3474.144
tp545
a(g1
((lp546
I1065995
aI16812055
atp547
Rp548
F3475.844
tp549
a(g1
((lp550
I73730
aI16812055
atp551
Rp552
F3476.828
tp553
a(g1
((lp554
I1082379
aI16783383
atp555
Rp556
F3476.9
tp557
a(g1
((lp558
I279045
aI16812055
atp559
Rp560
F3478.4
tp561
a(g1
((lp562
I135427
aI16795671
atp563
Rp564
F3480.556
tp565
a(g1
((lp566
I98306
aI16783383
atp567
Rp568
F3482.772
tp569
a(g1
((lp570
I268442665
aI16812055
atp571
Rp572
F3483.192
tp573
a(g1
((lp574
I134236965
aI16783383
atp575
Rp576
F3483.56
tp577
a(g1
((lp578
I2114829
aI16812055
atp579
Rp580
F3483.76
tp581
a(g1
((lp582
I270853
aI16812055
atp583
Rp584
F3484.76
tp585
a(g1
((lp586
I33589533
aI16783383
atp587
Rp588
F3488.396
tp589
a(g1
((lp590
I266757
aI16795671
atp591
Rp592
F3499.468
tp593
a(g1
((lp594
I16812055
aI67144223
atp595
Rp596
F3499.784
tp597
a(g1
((lp598
I16783383
aI67127839
atp599
Rp600
F3500.848
tp601
a(g1
((lp602
I134228773
aI16783383
atp603
Rp604
F3503.04
tp605
a(g1
((lp606
I268442665
aI4199953
atp607
Rp608
F3503.2
tp609
a(g1
((lp610
I67119647
aI16795671
atp611
Rp612
F3506.624
tp613
a(g1
((lp614
I268471337
aI16795671
atp615
Rp616
F3507.356
tp617
a(g1
((lp618
I4204049
aI1057803
atp619
Rp620
F3507.44
tp621
a(g1
((lp622
I134228773
aI16795671
atp623
Rp624
F3510.008
tp625
a(g1
((lp626
I4199953
aI2102541
atp627
Rp628
F3511.476
tp629
a(g1
((lp630
I2102541
aI16812055
atp631
Rp632
F3511.928
tp633
a(g1
((lp634
I139523
aI16812055
atp635
Rp636
F3517.964
tp637
a(g1
((lp638
I279045
aI16783383
atp639
Rp640
F3519.436
tp641
a(g1
((lp642
I164099
aI16783383
atp643
Rp644
F3520.092
tp645
a(g1
((lp646
I4199953
aI8394515
atp647
Rp648
F3520.492
tp649
a(g1
((lp650
I268471337
aI16783383
atp651
Rp652
F3520.572
tp653
a(g1
((lp654
I135427
aI16812055
atp655
Rp656
F3522.536
tp657
a(g1
((lp658
I4199953
aI134224677
atp659
Rp660
F3525.1
tp661
a(g1
((lp662
I4212241
aI33560861
atp663
Rp664
F3526.972
tp665
a(g1
((lp666
I268446761
aI16812055
atp667
Rp668
F3533.848
tp669
a(g1
((lp670
I139523
aI16795671
atp671
Rp672
F3535.592
tp673
a(g1
((lp674
I1057803
aI16783383
atp675
Rp676
F3536.184
tp677
a(g1
((lp678
I147715
aI16795671
atp679
Rp680
F3538.072
tp681
a(g1
((lp682
I4204049
aI8394515
atp683
Rp684
F3539.888
tp685
a(g1
((lp686
I8394515
aI8406803
atp687
Rp688
F3540.496
tp689
a(g1
((lp690
I8394515
aI8423187
atp691
Rp692
F3543.552
tp693
a(g1
((lp694
I279045
aI16795671
atp695
Rp696
F3545.08
tp697
a(g1
((lp698
I147715
aI16783383
atp699
Rp700
F3546.144
tp701
a(g1
((lp702
I134228773
aI16812055
atp703
Rp704
F3546.42
tp705
a(g1
((lp706
I1057803
aI16812055
atp707
Rp708
F3546.82
tp709
a(g1
((lp710
I8423187
aI8398611
atp711
Rp712
F3548.7
tp713
a(g1
((lp714
I139523
aI16783383
atp715
Rp716
F3549.68
tp717
a(g1
((lp718
I73730
aI16783383
atp719
Rp720
F3550.36
tp721
a(g1
((lp722
I266757
aI16812055
atp723
Rp724
F3551.86
tp725
a(g1
((lp726
I33560861
aI16812055
atp727
Rp728
F3552.248
tp729
a(g1
((lp730
I164099
aI16795671
atp731
Rp732
F3553.216
tp733
a(g1
((lp734
I4204049
aI2106637
atp735
Rp736
F3553.508
tp737
a(g1
((lp738
I8406803
aI8398611
atp739
Rp740
F3554.764
tp741
a(g1
((lp742
I147715
aI16812055
atp743
Rp744
F3555.672
tp745
a(g1
((lp746
I295429
aI16783383
atp747
Rp748
F3559.408
tp749
a(g1
((lp750
I266757
aI16783383
atp751
Rp752
F3568.84
tp753
a(g1
((lp754
I81922
aI16783383
atp755
Rp756
F3569.236
tp757
a(g1
((lp758
I81922
aI16795671
atp759
Rp760
F3574.2
tp761
a(g1
((lp762
I4199953
aI1053707
atp763
Rp764
F3576.3
tp765
a(g1
((lp766
I4204049
aI8398611
atp767
Rp768
F3577.68
tp769
a(g1
((lp770
I8394515
aI8398611
atp771
Rp772
F3583.1
tp773
a(g1
((lp774
I69634
aI16795671
atp775
Rp776
F3583.228
tp777
a(g1
((lp778
I4212241
aI67119647
atp779
Rp780
F3585.98
tp781
a(g1
((lp782
I4199953
aI268446761
atp783
Rp784
F3590.28
tp785
a(g1
((lp786
I4204049
aI1082379
atp787
Rp788
F3595.74
tp789
a(g1
((lp790
I4199953
aI266757
atp791
Rp792
F3597.552
tp793
a(g1
((lp794
I4204049
aI8423187
atp795
Rp796
F3598.716
tp797
a(g1
((lp798
I81922
aI16812055
atp799
Rp800
F3601.144
tp801
a(g1
((lp802
I98306
aI16795671
atp803
Rp804
F3607.292
tp805
a(g1
((lp806
I4199953
aI33560861
atp807
Rp808
F3607.844
tp809
a(g1
((lp810
I4212241
aI8423187
atp811
Rp812
F3609.016
tp813
a(g1
((lp814
I4204049
aI67119647
atp815
Rp816
F3615.028
tp817
a(g1
((lp818
I4204049
aI139523
atp819
Rp820
F3617.404
tp821
a(g1
((lp822
I4199953
aI134228773
atp823
Rp824
F3617.9
tp825
a(g1
((lp826
I4199953
aI33564957
atp827
Rp828
F3619.144
tp829
a(g1
((lp830
I4199953
aI67115551
atp831
Rp832
F3620.552
tp833
a(g1
((lp834
I4212241
aI268446761
atp835
Rp836
F3620.976
tp837
a(g1
((lp838
I4204049
aI1053707
atp839
Rp840
F3627.392
tp841
a(g1
((lp842
I4199953
aI33589533
atp843
Rp844
F3628.6
tp845
a(g1
((lp846
I8406803
aI8423187
atp847
Rp848
F3629.376
tp849
a(g1
((lp850
I4199953
aI33573149
atp851
Rp852
F3632.8
tp853
a(g1
((lp854
I4212241
aI1065995
atp855
Rp856
F3633.756
tp857
a(g1
((lp858
I4199953
aI67127839
atp859
Rp860
F3637.776
tp861
a(g1
((lp862
I4204049
aI8406803
atp863
Rp864
F3648.728
tp865
a(g1
((lp866
I4199953
aI69634
atp867
Rp868
F3649.392
tp869
a(g1
((lp870
I4212241
aI33589533
atp871
Rp872
F3651.048
tp873
a(g1
((lp874
I73730
aI16795671
atp875
Rp876
F3652.628
tp877
a(g1
((lp878
I4204049
aI2131213
atp879
Rp880
F3655.816
tp881
a(g1
((lp882
I4199953
aI8423187
atp883
Rp884
F3656.004
tp885
a(g1
((lp886
I4199953
aI67144223
atp887
Rp888
F3659.148
tp889
a(g1
((lp890
I4212241
aI8394515
atp891
Rp892
F3661.54
tp893
a(g1
((lp894
I4204049
aI73730
atp895
Rp896
F3662.196
tp897
a(g1
((lp898
I4199953
aI134236965
atp899
Rp900
F3669.0
tp901
a(g1
((lp902
I4204049
aI270853
atp903
Rp904
F3673.392
tp905
a(g1
((lp906
I4199953
aI279045
atp907
Rp908
F3674.336
tp909
a(g1
((lp910
I4212241
aI33564957
atp911
Rp912
F3675.668
tp913
a(g1
((lp914
I4199953
aI2106637
atp915
Rp916
F3676.46
tp917
a(g1
((lp918
I4204049
aI33564957
atp919
Rp920
F3676.76
tp921
a(g1
((lp922
I4204049
aI33560861
atp923
Rp924
F3683.952
tp925
a(g1
((lp926
I268471337
aI4199953
atp927
Rp928
F3684.888
tp929
a(g1
((lp930
I4204049
aI2102541
atp931
Rp932
F3685.004
tp933
a(g1
((lp934
I4204049
aI2114829
atp935
Rp936
F3687.604
tp937
a(g1
((lp938
I268442665
aI4204049
atp939
Rp940
F3691.204
tp941
a(g1
((lp942
I4212241
aI67144223
atp943
Rp944
F3692.016
tp945
a(g1
((lp946
I4199953
aI135427
atp947
Rp948
F3694.636
tp949
a(g1
((lp950
I4212241
aI8398611
atp951
Rp952
F3695.636
tp953
a(g1
((lp954
I4212241
aI2131213
atp955
Rp956
F3695.692
tp957
a(g1
((lp958
I4204049
aI33589533
atp959
Rp960
F3696.836
tp961
a(g1
((lp962
I4212241
aI2106637
atp963
Rp964
F3699.052
tp965
a(g1
((lp966
I4212241
aI67115551
atp967
Rp968
F3704.132
tp969
a(g1
((lp970
I2131213
aI557831
atp971
Rp972
F3705.176
tp973
a(g1
((lp974
I4212241
aI279045
atp975
Rp976
F3705.608
tp977
a(g1
((lp978
I4212241
aI2114829
atp979
Rp980
F3708.648
tp981
a(g1
((lp982
I4204049
aI134253349
atp983
Rp984
F3708.824
tp985
a(g1
((lp986
I4199953
aI134253349
atp987
Rp988
F3710.74
tp989
a(g1
((lp990
I4199953
aI1057803
atp991
Rp992
F3714.508
tp993
a(g1
((lp994
I4199953
aI8406803
atp995
Rp996
F3715.06
tp997
a(g1
((lp998
I4199953
aI1082379
atp999
Rp1000
F3715.564
tp1001
a(g1
((lp1002
I4199953
aI2131213
atp1003
Rp1004
F3719.004
tp1005
a(g1
((lp1006
I4204049
aI134236965
atp1007
Rp1008
F3720.004
tp1009
a(g1
((lp1010
I268454953
aI4204049
atp1011
Rp1012
F3723.06
tp1013
a(g1
((lp1014
I4204049
aI1065995
atp1015
Rp1016
F3723.608
tp1017
a(g1
((lp1018
I4212241
aI268454953
atp1019
Rp1020
F3726.884
tp1021
a(g1
((lp1022
I4212241
aI134228773
atp1023
Rp1024
F3728.32
tp1025
a(g1
((lp1026
I4212241
aI8406803
atp1027
Rp1028
F3732.764
tp1029
a(g1
((lp1030
I4212241
aI295429
atp1031
Rp1032
F3740.824
tp1033
a(g1
((lp1034
I4212241
aI270853
atp1035
Rp1036
F3740.98
tp1037
a(g1
((lp1038
I4212241
aI266757
atp1039
Rp1040
F3741.688
tp1041
a(g1
((lp1042
I2106637
aI533255
atp1043
Rp1044
F3742.76
tp1045
a(g1
((lp1046
I8423187
aI557831
atp1047
Rp1048
F3743.952
tp1049
a(g1
((lp1050
I4199953
aI67119647
atp1051
Rp1052
F3744.948
tp1053
a(g1
((lp1054
I4212241
aI1057803
atp1055
Rp1056
F3745.068
tp1057
a(g1
((lp1058
I4204049
aI147715
atp1059
Rp1060
F3745.712
tp1061
a(g1
((lp1062
I8394515
aI2102541
atp1063
Rp1064
F3745.9
tp1065
a(g1
((lp1066
I2102541
aI2114829
atp1067
Rp1068
F3747.984
tp1069
a(g1
((lp1070
I4204049
aI67144223
atp1071
Rp1072
F3749.596
tp1073
a(g1
((lp1074
I4204049
aI266757
atp1075
Rp1076
F3753.148
tp1077
a(g1
((lp1078
I4199953
aI295429
atp1079
Rp1080
F3755.464
tp1081
a(g1
((lp1082
I4212241
aI268471337
atp1083
Rp1084
F3756.124
tp1085
a(g1
((lp1086
I268471337
aI4204049
atp1087
Rp1088
F3757.94
tp1089
a(g1
((lp1090
I2106637
aI2102541
atp1091
Rp1092
F3765.284
tp1093
a(g1
((lp1094
I4204049
aI81922
atp1095
Rp1096
F3768.48
tp1097
a(g1
((lp1098
I268454953
aI4199953
atp1099
Rp1100
F3771.64
tp1101
a(g1
((lp1102
I2106637
aI2131213
atp1103
Rp1104
F3772.152
tp1105
a(g1
((lp1106
I4204049
aI69634
atp1107
Rp1108
F3778.5
tp1109
a(g1
((lp1110
I4212241
aI67127839
atp1111
Rp1112
F3779.22
tp1113
a(g1
((lp1114
I4204049
aI67115551
atp1115
Rp1116
F3780.212
tp1117
a(g1
((lp1118
I4212241
aI134224677
atp1119
Rp1120
F3781.248
tp1121
a(g1
((lp1122
I4212241
aI134253349
atp1123
Rp1124
F3781.62
tp1125
a(g1
((lp1126
I4199953
aI8398611
atp1127
Rp1128
F3782.812
tp1129
a(g1
((lp1130
I4204049
aI164099
atp1131
Rp1132
F3785.008
tp1133
a(g1
((lp1134
I4199953
aI73730
atp1135
Rp1136
F3786.248
tp1137
a(g1
((lp1138
I4212241
aI33573149
atp1139
Rp1140
F3787.288
tp1141
a(g1
((lp1142
I4199953
aI164099
atp1143
Rp1144
F3789.24
tp1145
a(g1
((lp1146
I4199953
aI2114829
atp1147
Rp1148
F3790.424
tp1149
a(g1
((lp1150
I2102541
aI2131213
atp1151
Rp1152
F3793.124
tp1153
a(g1
((lp1154
I4212241
aI1053707
atp1155
Rp1156
F3796.296
tp1157
a(g1
((lp1158
I4204049
aI33573149
atp1159
Rp1160
F3796.892
tp1161
a(g1
((lp1162
I4204049
aI134224677
atp1163
Rp1164
F3798.42
tp1165
a(g1
((lp1166
I2131213
aI2114829
atp1167
Rp1168
F3799.328
tp1169
a(g1
((lp1170
I4212241
aI134236965
atp1171
Rp1172
F3803.444
tp1173
a(g1
((lp1174
I4199953
aI1065995
atp1175
Rp1176
F3805.232
tp1177
a(g1
((lp1178
I4204049
aI135427
atp1179
Rp1180
F3816.4
tp1181
a(g1
((lp1182
I268442665
aI4212241
atp1183
Rp1184
F3820.84
tp1185
a(g1
((lp1186
I4212241
aI2102541
atp1187
Rp1188
F3826.936
tp1189
a(g1
((lp1190
I1053707
aI1082379
atp1191
Rp1192
F3828.772
tp1193
a(g1
((lp1194
I4199953
aI139523
atp1195
Rp1196
F3828.864
tp1197
a(g1
((lp1198
I134236965
aI533255
atp1199
Rp1200
F3830.628
tp1201
a(g1
((lp1202
I1057803
aI533255
atp1203
Rp1204
F3830.832
tp1205
a(g1
((lp1206
I4212241
aI139523
atp1207
Rp1208
F3830.98
tp1209
a(g1
((lp1210
I4204049
aI279045
atp1211
Rp1212
F3837.964
tp1213
a(g1
((lp1214
I4204049
aI67127839
atp1215
Rp1216
F3840.26
tp1217
a(g1
((lp1218
I8394515
aI2131213
atp1219
Rp1220
F3840.5
tp1221
a(g1
((lp1222
I557831
aI67144223
atp1223
Rp1224
F3840.856
tp1225
a(g1
((lp1226
I4212241
aI147715
atp1227
Rp1228
F3841.516
tp1229
a(g1
((lp1230
I4199953
aI98306
atp1231
Rp1232
F3847.332
tp1233
a(g1
((lp1234
I4212241
aI73730
atp1235
Rp1236
F3851.248
tp1237
a(g1
((lp1238
I4212241
aI1082379
atp1239
Rp1240
F3851.732
tp1241
a(g1
((lp1242
I4199953
aI81922
atp1243
Rp1244
F3852.124
tp1245
a(g1
((lp1246
I4204049
aI295429
atp1247
Rp1248
F3853.796
tp1249
a(g1
((lp1250
I4204049
aI98306
atp1251
Rp1252
F3855.932
tp1253
a(g1
((lp1254
I4212241
aI164099
atp1255
Rp1256
F3857.848
tp1257
a(g1
((lp1258
I4212241
aI135427
atp1259
Rp1260
F3859.528
tp1261
a(g1
((lp1262
I8423187
aI33589533
atp1263
Rp1264
F3860.048
tp1265
a(g1
((lp1266
I4199953
aI270853
atp1267
Rp1268
F3864.768
tp1269
a(g1
((lp1270
I8398611
aI2106637
atp1271
Rp1272
F3866.716
tp1273
a(g1
((lp1274
I4199953
aI147715
atp1275
Rp1276
F3868.956
tp1277
a(g1
((lp1278
I8394515
aI33560861
atp1279
Rp1280
F3869.452
tp1281
a(g1
((lp1282
I533255
aI67119647
atp1283
Rp1284
F3873.564
tp1285
a(g1
((lp1286
I4212241
aI69634
atp1287
Rp1288
F3877.94
tp1289
a(g1
((lp1290
I134228773
aI533255
atp1291
Rp1292
F3879.208
tp1293
a(g1
((lp1294
I268446761
aI533255
atp1295
Rp1296
F3880.056
tp1297
a(g1
((lp1298
I1082379
aI557831
atp1299
Rp1300
F3885.848
tp1301
a(g1
((lp1302
I1057803
aI2106637
atp1303
Rp1304
F3886.348
tp1305
a(g1
((lp1306
I1065995
aI533255
atp1307
Rp1308
F3886.416
tp1309
a(g1
((lp1310
I8406803
aI33560861
atp1311
Rp1312
F3890.204
tp1313
a(g1
((lp1314
I8423187
aI33564957
atp1315
Rp1316
F3890.464
tp1317
a(g1
((lp1318
I4212241
aI81922
atp1319
Rp1320
F3892.04
tp1321
a(g1
((lp1322
I1082379
aI1057803
atp1323
Rp1324
F3896.976
tp1325
a(g1
((lp1326
I8394515
aI33589533
atp1327
Rp1328
F3897.364
tp1329
a(g1
((lp1330
I8398611
aI541447
atp1331
Rp1332
F3902.864
tp1333
a(g1
((lp1334
I1065995
aI1057803
atp1335
Rp1336
F3908.644
tp1337
a(g1
((lp1338
I33564957
aI533255
atp1339
Rp1340
F3908.668
tp1341
a(g1
((lp1342
I2106637
aI2114829
atp1343
Rp1344
F3909.44
tp1345
a(g1
((lp1346
I8398611
aI533255
atp1347
Rp1348
F3912.66
tp1349
a(g1
((lp1350
I533255
aI67127839
atp1351
Rp1352
F3914.432
tp1353
a(g1
((lp1354
I1082379
aI2131213
atp1355
Rp1356
F3918.336
tp1357
a(g1
((lp1358
I8406803
aI33589533
atp1359
Rp1360
F3932.428
tp1361
a(g1
((lp1362
I33564957
aI541447
atp1363
Rp1364
F3934.808
tp1365
a(g1
((lp1366
I8423187
aI2131213
atp1367
Rp1368
F3936.672
tp1369
a(g1
((lp1370
I1053707
aI1057803
atp1371
Rp1372
F3938.372
tp1373
a(g1
((lp1374
I8398611
aI33589533
atp1375
Rp1376
F3940.832
tp1377
a(g1
((lp1378
I4212241
aI98306
atp1379
Rp1380
F3943.872
tp1381
a(g1
((lp1382
I1082379
aI2114829
atp1383
Rp1384
F3951.724
tp1385
a(g1
((lp1386
I268454953
aI541447
atp1387
Rp1388
F3952.064
tp1389
a(g1
((lp1390
I8398611
aI33564957
atp1391
Rp1392
F3957.84
tp1393
a(g1
((lp1394
I295429
aI557831
atp1395
Rp1396
F3959.288
tp1397
a(g1
((lp1398
I8394515
aI33564957
atp1399
Rp1400
F3962.18
tp1401
a(g1
((lp1402
I8398611
aI33560861
atp1403
Rp1404
F3963.072
tp1405
a(g1
((lp1406
I1053707
aI2102541
atp1407
Rp1408
F3963.16
tp1409
a(g1
((lp1410
I8394515
aI533255
atp1411
Rp1412
F3968.372
tp1413
a(g1
((lp1414
I8394515
aI557831
atp1415
Rp1416
F3968.984
tp1417
a(g1
((lp1418
I8406803
aI541447
atp1419
Rp1420
F3970.916
tp1421
a(g1
((lp1422
I139523
aI533255
atp1423
Rp1424
F3971.988
tp1425
a(g1
((lp1426
I8406803
aI33573149
atp1427
Rp1428
F3976.728
tp1429
a(g1
((lp1430
I8394515
aI33573149
atp1431
Rp1432
F3976.744
tp1433
a(g1
((lp1434
I8406803
aI2131213
atp1435
Rp1436
F3980.708
tp1437
a(g1
((lp1438
I1065995
aI2106637
atp1439
Rp1440
F3985.352
tp1441
a(g1
((lp1442
I8423187
aI33573149
atp1443
Rp1444
F3986.332
tp1445
a(g1
((lp1446
I67119647
aI541447
atp1447
Rp1448
F3988.812
tp1449
a(g1
((lp1450
I8394515
aI2114829
atp1451
Rp1452
F3989.46
tp1453
a(g1
((lp1454
I33560861
aI541447
atp1455
Rp1456
F3989.972
tp1457
a(g1
((lp1458
I1082379
aI2102541
atp1459
Rp1460
F3992.516
tp1461
a(g1
((lp1462
I2114829
aI541447
atp1463
Rp1464
F3993.128
tp1465
a(g1
((lp1466
I8406803
aI557831
atp1467
Rp1468
F3997.672
tp1469
a(g1
((lp1470
I1065995
aI2131213
atp1471
Rp1472
F3998.0
tp1473
a(g1
((lp1474
I8394515
aI541447
atp1475
Rp1476
F4001.192
tp1477
a(g1
((lp1478
I2131213
aI541447
atp1479
Rp1480
F4004.044
tp1481
a(g1
((lp1482
I8406803
aI2114829
atp1483
Rp1484
F4004.072
tp1485
a(g1
((lp1486
I33589533
aI557831
atp1487
Rp1488
F4006.388
tp1489
a(g1
((lp1490
I33573149
aI533255
atp1491
Rp1492
F4010.08
tp1493
a(g1
((lp1494
I8398611
aI33573149
atp1495
Rp1496
F4010.476
tp1497
a(g1
((lp1498
I1065995
aI1082379
atp1499
Rp1500
F4010.656
tp1501
a(g1
((lp1502
I2102541
aI541447
atp1503
Rp1504
F4011.18
tp1505
a(g1
((lp1506
I33589533
aI533255
atp1507
Rp1508
F4013.096
tp1509
a(g1
((lp1510
I268454953
aI533255
atp1511
Rp1512
F4014.192
tp1513
a(g1
((lp1514
I1057803
aI541447
atp1515
Rp1516
F4014.384
tp1517
a(g1
((lp1518
I8423187
aI541447
atp1519
Rp1520
F4015.036
tp1521
a(g1
((lp1522
I270853
aI541447
atp1523
Rp1524
F4016.324
tp1525
a(g1
((lp1526
I270853
aI533255
atp1527
Rp1528
F4016.916
tp1529
a(g1
((lp1530
I1065995
aI541447
atp1531
Rp1532
F4018.364
tp1533
a(g1
((lp1534
I8423187
aI533255
atp1535
Rp1536
F4020.384
tp1537
a(g1
((lp1538
I8423187
aI33560861
atp1539
Rp1540
F4023.516
tp1541
a(g1
((lp1542
I1057803
aI2114829
atp1543
Rp1544
F4023.956
tp1545
a(g1
((lp1546
I2102541
aI557831
atp1547
Rp1548
F4023.988
tp1549
a(g1
((lp1550
I2106637
aI541447
atp1551
Rp1552
F4024.592
tp1553
a(g1
((lp1554
I33573149
aI557831
atp1555
Rp1556
F4024.604
tp1557
a(g1
((lp1558
I33560861
aI533255
atp1559
Rp1560
F4025.336
tp1561
a(g1
((lp1562
I8398611
aI2102541
atp1563
Rp1564
F4025.988
tp1565
a(g1
((lp1566
I2102541
aI533255
atp1567
Rp1568
F4026.192
tp1569
a(g1
((lp1570
I295429
aI533255
atp1571
Rp1572
F4027.512
tp1573
a(g1
((lp1574
I33573149
aI541447
atp1575
Rp1576
F4030.488
tp1577
a(g1
((lp1578
I1057803
aI2131213
atp1579
Rp1580
F4031.756
tp1581
a(g1
((lp1582
I533255
aI67144223
atp1583
Rp1584
F4035.408
tp1585
a(g1
((lp1586
I2114829
aI557831
atp1587
Rp1588
F4039.66
tp1589
a(g1
((lp1590
I134236965
aI557831
atp1591
Rp1592
F4042.72
tp1593
a(g1
((lp1594
I1065995
aI1053707
atp1595
Rp1596
F4045.82
tp1597
a(g1
((lp1598
I2106637
aI557831
atp1599
Rp1600
F4046.068
tp1601
a(g1
((lp1602
I1053707
aI2131213
atp1603
Rp1604
F4047.116
tp1605
a(g1
((lp1606
I268442665
aI533255
atp1607
Rp1608
F4047.776
tp1609
a(g1
((lp1610
I279045
aI557831
atp1611
Rp1612
F4048.0
tp1613
a(g1
((lp1614
I2114829
aI533255
atp1615
Rp1616
F4050.664
tp1617
a(g1
((lp1618
I268454953
aI557831
atp1619
Rp1620
F4050.82
tp1621
a(g1
((lp1622
I279045
aI541447
atp1623
Rp1624
F4051.44
tp1625
a(g1
((lp1626
I268471337
aI557831
atp1627
Rp1628
F4051.816
tp1629
a(g1
((lp1630
I268446761
aI541447
atp1631
Rp1632
F4052.336
tp1633
a(g1
((lp1634
I8398611
aI557831
atp1635
Rp1636
F4054.004
tp1637
a(g1
((lp1638
I134228773
aI557831
atp1639
Rp1640
F4057.776
tp1641
a(g1
((lp1642
I33560861
aI557831
atp1643
Rp1644
F4059.028
tp1645
a(g1
((lp1646
I8406803
aI533255
atp1647
Rp1648
F4059.348
tp1649
a(g1
((lp1650
I1065995
aI2102541
atp1651
Rp1652
F4059.692
tp1653
a(g1
((lp1654
I134253349
aI541447
atp1655
Rp1656
F4059.796
tp1657
a(g1
((lp1658
I270853
aI266757
atp1659
Rp1660
F4063.316
tp1661
a(g1
((lp1662
I2131213
aI533255
atp1663
Rp1664
F4068.572
tp1665
a(g1
((lp1666
I8406803
aI33564957
atp1667
Rp1668
F4069.232
tp1669
a(g1
((lp1670
I164099
aI557831
atp1671
Rp1672
F4071.112
tp1673
a(g1
((lp1674
I8423187
aI2114829
atp1675
Rp1676
F4073.14
tp1677
a(g1
((lp1678
I541447
aI67127839
atp1679
Rp1680
F4073.436
tp1681
a(g1
((lp1682
I67115551
aI541447
atp1683
Rp1684
F4076.744
tp1685
a(g1
((lp1686
I147715
aI541447
atp1687
Rp1688
F4077.116
tp1689
a(g1
((lp1690
I8398611
aI2114829
atp1691
Rp1692
F4081.244
tp1693
a(g1
((lp1694
I8423187
aI2102541
atp1695
Rp1696
F4090.448
tp1697
a(g1
((lp1698
I8406803
aI2106637
atp1699
Rp1700
F4092.592
tp1701
a(g1
((lp1702
I1082379
aI533255
atp1703
Rp1704
F4092.828
tp1705
a(g1
((lp1706
I541447
aI67144223
atp1707
Rp1708
F4093.696
tp1709
a(g1
((lp1710
I134228773
aI541447
atp1711
Rp1712
F4094.688
tp1713
a(g1
((lp1714
I1057803
aI2102541
atp1715
Rp1716
F4095.868
tp1717
a(g1
((lp1718
I134253349
aI533255
atp1719
Rp1720
F4096.948
tp1721
a(g1
((lp1722
I98306
aI557831
atp1723
Rp1724
F4098.36
tp1725
a(g1
((lp1726
I1057803
aI557831
atp1727
Rp1728
F4103.004
tp1729
a(g1
((lp1730
I268471337
aI541447
atp1731
Rp1732
F4103.476
tp1733
a(g1
((lp1734
I134253349
aI557831
atp1735
Rp1736
F4108.208
tp1737
a(g1
((lp1738
I8398611
aI2131213
atp1739
Rp1740
F4108.512
tp1741
a(g1
((lp1742
I73730
aI533255
atp1743
Rp1744
F4110.384
tp1745
a(g1
((lp1746
I266757
aI533255
atp1747
Rp1748
F4115.08
tp1749
a(g1
((lp1750
I33564957
aI557831
atp1751
Rp1752
F4116.732
tp1753
a(g1
((lp1754
I268471337
aI533255
atp1755
Rp1756
F4119.716
tp1757
a(g1
((lp1758
I33589533
aI541447
atp1759
Rp1760
F4120.128
tp1761
a(g1
((lp1762
I8423187
aI2106637
atp1763
Rp1764
F4120.312
tp1765
a(g1
((lp1766
I1053707
aI533255
atp1767
Rp1768
F4122.064
tp1769
a(g1
((lp1770
I266757
aI541447
atp1771
Rp1772
F4122.272
tp1773
a(g1
((lp1774
I557831
aI67115551
atp1775
Rp1776
F4123.896
tp1777
a(g1
((lp1778
I1053707
aI557831
atp1779
Rp1780
F4126.98
tp1781
a(g1
((lp1782
I268446761
aI557831
atp1783
Rp1784
F4128.224
tp1785
a(g1
((lp1786
I1053707
aI2114829
atp1787
Rp1788
F4129.248
tp1789
a(g1
((lp1790
I134236965
aI541447
atp1791
Rp1792
F4130.116
tp1793
a(g1
((lp1794
I69634
aI557831
atp1795
Rp1796
F4134.824
tp1797
a(g1
((lp1798
I557831
aI67127839
atp1799
Rp1800
F4135.592
tp1801
a(g1
((lp1802
I295429
aI266757
atp1803
Rp1804
F4137.952
tp1805
a(g1
((lp1806
I279045
aI533255
atp1807
Rp1808
F4139.008
tp1809
a(g1
((lp1810
I134224677
aI557831
atp1811
Rp1812
F4143.876
tp1813
a(g1
((lp1814
I134224677
aI533255
atp1815
Rp1816
F4146.336
tp1817
a(g1
((lp1818
I533255
aI67115551
atp1819
Rp1820
F4148.972
tp1821
a(g1
((lp1822
I1065995
aI2114829
atp1823
Rp1824
F4151.9
tp1825
a(g1
((lp1826
I268442665
aI557831
atp1827
Rp1828
F4157.564
tp1829
a(g1
((lp1830
I73730
aI557831
atp1831
Rp1832
F4160.84
tp1833
a(g1
((lp1834
I164099
aI533255
atp1835
Rp1836
F4161.224
tp1837
a(g1
((lp1838
I557831
aI67119647
atp1839
Rp1840
F4168.652
tp1841
a(g1
((lp1842
I270853
aI557831
atp1843
Rp1844
F4185.892
tp1845
a(g1
((lp1846
I98306
aI533255
atp1847
Rp1848
F4187.624
tp1849
a(g1
((lp1850
I69634
aI541447
atp1851
Rp1852
F4187.812
tp1853
a(g1
((lp1854
I81922
aI541447
atp1855
Rp1856
F4188.432
tp1857
a(g1
((lp1858
I1065995
aI557831
atp1859
Rp1860
F4190.084
tp1861
a(g1
((lp1862
I295429
aI541447
atp1863
Rp1864
F4193.708
tp1865
a(g1
((lp1866
I135427
aI541447
atp1867
Rp1868
F4195.556
tp1869
a(g1
((lp1870
I1082379
aI541447
atp1871
Rp1872
F4201.464
tp1873
a(g1
((lp1874
I266757
aI557831
atp1875
Rp1876
F4202.46
tp1877
a(g1
((lp1878
I8394515
aI2106637
atp1879
Rp1880
F4203.844
tp1881
a(g1
((lp1882
I270853
aI279045
atp1883
Rp1884
F4210.172
tp1885
a(g1
((lp1886
I279045
aI295429
atp1887
Rp1888
F4211.028
tp1889
a(g1
((lp1890
I268442665
aI541447
atp1891
Rp1892
F4211.728
tp1893
a(g1
((lp1894
I33564957
aI67119647
atp1895
Rp1896
F4216.184
tp1897
a(g1
((lp1898
I139523
aI541447
atp1899
Rp1900
F4224.048
tp1901
a(g1
((lp1902
I81922
aI533255
atp1903
Rp1904
F4230.244
tp1905
a(g1
((lp1906
I147715
aI533255
atp1907
Rp1908
F4230.432
tp1909
a(g1
((lp1910
I147715
aI557831
atp1911
Rp1912
F4234.26
tp1913
a(g1
((lp1914
I1053707
aI541447
atp1915
Rp1916
F4236.524
tp1917
a(g1
((lp1918
I8406803
aI2102541
atp1919
Rp1920
F4241.016
tp1921
a(g1
((lp1922
I69634
aI533255
atp1923
Rp1924
F4241.444
tp1925
a(g1
((lp1926
I33573149
aI67127839
atp1927
Rp1928
F4254.168
tp1929
a(g1
((lp1930
I73730
aI541447
atp1931
Rp1932
F4257.0
tp1933
a(g1
((lp1934
I8398611
aI67119647
atp1935
Rp1936
F4260.096
tp1937
a(g1
((lp1938
I279045
aI266757
atp1939
Rp1940
F4281.9
tp1941
a(g1
((lp1942
I164099
aI541447
atp1943
Rp1944
F4282.404
tp1945
a(g1
((lp1946
I98306
aI541447
atp1947
Rp1948
F4297.308
tp1949
a(g1
((lp1950
I134224677
aI541447
atp1951
Rp1952
F4299.416
tp1953
a(g1
((lp1954
I139523
aI557831
atp1955
Rp1956
F4301.436
tp1957
a(g1
((lp1958
I135427
aI533255
atp1959
Rp1960
F4310.556
tp1961
a(g1
((lp1962
I1053707
aI2106637
atp1963
Rp1964
F4317.268
tp1965
a(g1
((lp1966
I8394515
aI67115551
atp1967
Rp1968
F4322.536
tp1969
a(g1
((lp1970
I8398611
aI67144223
atp1971
Rp1972
F4327.448
tp1973
a(g1
((lp1974
I139523
aI164099
atp1975
Rp1976
F4333.348
tp1977
a(g1
((lp1978
I33564957
aI2106637
atp1979
Rp1980
F4335.932
tp1981
a(g1
((lp1982
I33564957
aI67115551
atp1983
Rp1984
F4337.48
tp1985
a(g1
((lp1986
I135427
aI557831
atp1987
Rp1988
F4339.332
tp1989
a(g1
((lp1990
I33589533
aI67144223
atp1991
Rp1992
F4341.116
tp1993
a(g1
((lp1994
I1082379
aI2106637
atp1995
Rp1996
F4369.428
tp1997
a(g1
((lp1998
I139523
aI135427
atp1999
Rp2000
F4373.8
tp2001
a(g1
((lp2002
I8423187
aI67127839
atp2003
Rp2004
F4375.568
tp2005
a(g1
((lp2006
I81922
aI557831
atp2007
Rp2008
F4379.148
tp2009
a(g1
((lp2010
I8406803
aI67144223
atp2011
Rp2012
F4384.352
tp2013
a(g1
((lp2014
I8423187
aI67119647
atp2015
Rp2016
F4388.336
tp2017
a(g1
((lp2018
I33573149
aI67144223
atp2019
Rp2020
F4396.788
tp2021
a(g1
((lp2022
I33564957
aI67144223
atp2023
Rp2024
F4416.78
tp2025
a(g1
((lp2026
I33589533
aI67127839
atp2027
Rp2028
F4423.38
tp2029
a(g1
((lp2030
I8394515
aI67127839
atp2031
Rp2032
F4425.228
tp2033
a(g1
((lp2034
I8394515
aI67144223
atp2035
Rp2036
F4436.948
tp2037
a(g1
((lp2038
I135427
aI164099
atp2039
Rp2040
F4446.424
tp2041
a(g1
((lp2042
I164099
aI147715
atp2043
Rp2044
F4447.064
tp2045
a(g1
((lp2046
I33589533
aI67115551
atp2047
Rp2048
F4448.98
tp2049
a(g1
((lp2050
I8398611
aI67127839
atp2051
Rp2052
F4449.476
tp2053
a(g1
((lp2054
I270853
aI295429
atp2055
Rp2056
F4451.148
tp2057
a(g1
((lp2058
I8406803
aI67115551
atp2059
Rp2060
F4457.256
tp2061
a(g1
((lp2062
I8406803
aI67119647
atp2063
Rp2064
F4459.616
tp2065
a(g1
((lp2066
I33560861
aI67119647
atp2067
Rp2068
F4461.136
tp2069
a(g1
((lp2070
I139523
aI147715
atp2071
Rp2072
F4461.504
tp2073
a(g1
((lp2074
I73730
aI69634
atp2075
Rp2076
F4466.692
tp2077
a(g1
((lp2078
I33560861
aI67127839
atp2079
Rp2080
F4476.704
tp2081
a(g1
((lp2082
I268471337
aI8423187
atp2083
Rp2084
F4478.968
tp2085
a(g1
((lp2086
I2114829
aI33560861
atp2087
Rp2088
F4482.492
tp2089
a(g1
((lp2090
I69634
aI81922
atp2091
Rp2092
F4485.844
tp2093
a(g1
((lp2094
I270853
aI2131213
atp2095
Rp2096
F4493.572
tp2097
a(g1
((lp2098
I135427
aI147715
atp2099
Rp2100
F4503.596
tp2101
a(g1
((lp2102
I1057803
aI270853
atp2103
Rp2104
F4506.884
tp2105
a(g1
((lp2106
I33560861
aI67115551
atp2107
Rp2108
F4508.14
tp2109
a(g1
((lp2110
I8406803
aI1053707
atp2111
Rp2112
F4518.208
tp2113
a(g1
((lp2114
I33564957
aI67127839
atp2115
Rp2116
F4521.38
tp2117
a(g1
((lp2118
I2102541
aI33560861
atp2119
Rp2120
F4525.6
tp2121
a(g1
((lp2122
I8423187
aI67115551
atp2123
Rp2124
F4529.644
tp2125
a(g1
((lp2126
I8423187
aI67144223
atp2127
Rp2128
F4530.284
tp2129
a(g1
((lp2130
I2102541
aI266757
atp2131
Rp2132
F4542.984
tp2133
a(g1
((lp2134
I2114829
aI33573149
atp2135
Rp2136
F4544.188
tp2137
a(g1
((lp2138
I270853
aI2106637
atp2139
Rp2140
F4546.012
tp2141
a(g1
((lp2142
I1053707
aI266757
atp2143
Rp2144
F4551.184
tp2145
a(g1
((lp2146
I8398611
aI67115551
atp2147
Rp2148
F4551.352
tp2149
a(g1
((lp2150
I2131213
aI295429
atp2151
Rp2152
F4554.904
tp2153
a(g1
((lp2154
I69634
aI98306
atp2155
Rp2156
F4559.5
tp2157
a(g1
((lp2158
I8394515
aI67119647
atp2159
Rp2160
F4560.16
tp2161
a(g1
((lp2162
I1065995
aI266757
atp2163
Rp2164
F4564.872
tp2165
a(g1
((lp2166
I1065995
aI8423187
atp2167
Rp2168
F4565.68
tp2169
a(g1
((lp2170
I33589533
aI67119647
atp2171
Rp2172
F4569.416
tp2173
a(g1
((lp2174
I8394515
aI1053707
atp2175
Rp2176
F4576.612
tp2177
a(g1
((lp2178
I2131213
aI33573149
atp2179
Rp2180
F4577.804
tp2181
a(g1
((lp2182
I2106637
aI33573149
atp2183
Rp2184
F4578.3
tp2185
a(g1
((lp2186
I268442665
aI134224677
atp2187
Rp2188
F4578.816
tp2189
a(g1
((lp2190
I1082379
aI8398611
atp2191
Rp2192
F4579.608
tp2193
a(g1
((lp2194
I8398611
aI1057803
atp2195
Rp2196
F4580.988
tp2197
a(g1
((lp2198
I33589533
aI2131213
atp2199
Rp2200
F4586.828
tp2201
a(g1
((lp2202
I73730
aI81922
atp2203
Rp2204
F4588.52
tp2205
a(g1
((lp2206
I33560861
aI67144223
atp2207
Rp2208
F4592.908
tp2209
a(g1
((lp2210
I268446761
aI8398611
atp2211
Rp2212
F4593.268
tp2213
a(g1
((lp2214
I2102541
aI279045
atp2215
Rp2216
F4595.696
tp2217
a(g1
((lp2218
I33564957
aI2102541
atp2219
Rp2220
F4600.184
tp2221
a(g1
((lp2222
I2131213
aI33560861
atp2223
Rp2224
F4611.072
tp2225
a(g1
((lp2226
I1082379
aI295429
atp2227
Rp2228
F4617.452
tp2229
a(g1
((lp2230
I8423187
aI1082379
atp2231
Rp2232
F4617.684
tp2233
a(g1
((lp2234
I1053707
aI8398611
atp2235
Rp2236
F4621.768
tp2237
a(g1
((lp2238
I81922
aI98306
atp2239
Rp2240
F4626.484
tp2241
a(g1
((lp2242
I1065995
aI8406803
atp2243
Rp2244
F4628.444
tp2245
a(g1
((lp2246
I8406803
aI1082379
atp2247
Rp2248
F4629.264
tp2249
a(g1
((lp2250
I33589533
aI2114829
atp2251
Rp2252
F4630.2
tp2253
a(g1
((lp2254
I2102541
aI33573149
atp2255
Rp2256
F4633.192
tp2257
a(g1
((lp2258
I268471337
aI67144223
atp2259
Rp2260
F4641.828
tp2261
a(g1
((lp2262
I33573149
aI67115551
atp2263
Rp2264
F4643.74
tp2265
a(g1
((lp2266
I268471337
aI134253349
atp2267
Rp2268
F4646.992
tp2269
a(g1
((lp2270
I2106637
aI33589533
atp2271
Rp2272
F4649.008
tp2273
a(g1
((lp2274
I268446761
aI134228773
atp2275
Rp2276
F4650.448
tp2277
a(g1
((lp2278
I8406803
aI67127839
atp2279
Rp2280
F4654.032
tp2281
a(g1
((lp2282
I33573149
aI67119647
atp2283
Rp2284
F4658.256
tp2285
a(g1
((lp2286
I268442665
aI67115551
atp2287
Rp2288
F4660.504
tp2289
a(g1
((lp2290
I33564957
aI2114829
atp2291
Rp2292
F4662.812
tp2293
a(g1
((lp2294
I1053707
aI279045
atp2295
Rp2296
F4664.364
tp2297
a(g1
((lp2298
I8423187
aI134253349
atp2299
Rp2300
F4670.14
tp2301
a(g1
((lp2302
I268442665
aI67144223
atp2303
Rp2304
F4674.272
tp2305
a(g1
((lp2306
I8394515
aI1057803
atp2307
Rp2308
F4685.312
tp2309
a(g1
((lp2310
I268442665
aI8394515
atp2311
Rp2312
F4687.924
tp2313
a(g1
((lp2314
I2102541
aI295429
atp2315
Rp2316
F4688.872
tp2317
a(g1
((lp2318
I134253349
aI67144223
atp2319
Rp2320
F4691.976
tp2321
a(g1
((lp2322
I1057803
aI295429
atp2323
Rp2324
F4710.18
tp2325
a(g1
((lp2326
I8423187
aI1053707
atp2327
Rp2328
F4710.592
tp2329
a(g1
((lp2330
I268471337
aI33589533
atp2331
Rp2332
F4712.8
tp2333
a(g1
((lp2334
I1053707
aI295429
atp2335
Rp2336
F4714.088
tp2337
a(g1
((lp2338
I33589533
aI134253349
atp2339
Rp2340
F4714.728
tp2341
a(g1
((lp2342
I1065995
aI8398611
atp2343
Rp2344
F4716.404
tp2345
a(g1
((lp2346
I268446761
aI33564957
atp2347
Rp2348
F4719.104
tp2349
a(g1
((lp2350
I268454953
aI134253349
atp2351
Rp2352
F4722.556
tp2353
a(g1
((lp2354
I33564957
aI2131213
atp2355
Rp2356
F4722.876
tp2357
a(g1
((lp2358
I268442665
aI2102541
atp2359
Rp2360
F4725.78
tp2361
a(g1
((lp2362
I8394515
aI1082379
atp2363
Rp2364
F4728.62
tp2365
a(g1
((lp2366
I270853
aI2102541
atp2367
Rp2368
F4729.972
tp2369
a(g1
((lp2370
I268471337
aI67119647
atp2371
Rp2372
F4733.572
tp2373
a(g1
((lp2374
I134228773
aI67144223
atp2375
Rp2376
F4734.5
tp2377
a(g1
((lp2378
I1057803
aI266757
atp2379
Rp2380
F4735.828
tp2381
a(g1
((lp2382
I2106637
aI279045
atp2383
Rp2384
F4742.984
tp2385
a(g1
((lp2386
I8394515
aI1065995
atp2387
Rp2388
F4746.672
tp2389
a(g1
((lp2390
I134253349
aI2131213
atp2391
Rp2392
F4747.004
tp2393
a(g1
((lp2394
I268471337
aI2131213
atp2395
Rp2396
F4751.928
tp2397
a(g1
((lp2398
I2106637
aI33560861
atp2399
Rp2400
F4754.536
tp2401
a(g1
((lp2402
I2131213
aI266757
atp2403
Rp2404
F4755.264
tp2405
a(g1
((lp2406
I1082379
aI266757
atp2407
Rp2408
F4759.372
tp2409
a(g1
((lp2410
I1053707
aI270853
atp2411
Rp2412
F4759.392
tp2413
a(g1
((lp2414
I268442665
aI33560861
atp2415
Rp2416
F4761.92
tp2417
a(g1
((lp2418
I268446761
aI33573149
atp2419
Rp2420
F4763.868
tp2421
a(g1
((lp2422
I33589533
aI134224677
atp2423
Rp2424
F4766.756
tp2425
a(g1
((lp2426
I73730
aI98306
atp2427
Rp2428
F4770.24
tp2429
a(g1
((lp2430
I1082379
aI270853
atp2431
Rp2432
F4773.424
tp2433
a(g1
((lp2434
I268454953
aI134228773
atp2435
Rp2436
F4777.052
tp2437
a(g1
((lp2438
I268446761
aI2106637
atp2439
Rp2440
F4778.74
tp2441
a(g1
((lp2442
I134228773
aI67119647
atp2443
Rp2444
F4779.908
tp2445
a(g1
((lp2446
I268471337
aI1082379
atp2447
Rp2448
F4780.988
tp2449
a(g1
((lp2450
I2102541
aI67115551
atp2451
Rp2452
F4781.404
tp2453
a(g1
((lp2454
I2114829
aI266757
atp2455
Rp2456
F4785.3
tp2457
a(g1
((lp2458
I268454953
aI33560861
atp2459
Rp2460
F4788.444
tp2461
a(g1
((lp2462
I268446761
aI134224677
atp2463
Rp2464
F4789.24
tp2465
a(g1
((lp2466
I2114829
aI295429
atp2467
Rp2468
F4789.808
tp2469
a(g1
((lp2470
I8406803
aI1057803
atp2471
Rp2472
F4790.856
tp2473
a(g1
((lp2474
I268446761
aI1057803
atp2475
Rp2476
F4795.184
tp2477
a(g1
((lp2478
I268446761
aI67119647
atp2479
Rp2480
F4798.16
tp2481
a(g1
((lp2482
I1057803
aI67119647
atp2483
Rp2484
F4798.748
tp2485
a(g1
((lp2486
I268454953
aI33589533
atp2487
Rp2488
F4800.504
tp2489
a(g1
((lp2490
I1057803
aI279045
atp2491
Rp2492
F4802.884
tp2493
a(g1
((lp2494
I268442665
aI67127839
atp2495
Rp2496
F4804.528
tp2497
a(g1
((lp2498
I268446761
aI33589533
atp2499
Rp2500
F4804.616
tp2501
a(g1
((lp2502
I268446761
aI33560861
atp2503
Rp2504
F4805.62
tp2505
a(g1
((lp2506
I8394515
aI134224677
atp2507
Rp2508
F4805.8
tp2509
a(g1
((lp2510
I268454953
aI134224677
atp2511
Rp2512
F4806.332
tp2513
a(g1
((lp2514
I1065995
aI295429
atp2515
Rp2516
F4807.244
tp2517
a(g1
((lp2518
I268471337
aI134236965
atp2519
Rp2520
F4811.308
tp2521
a(g1
((lp2522
I33589533
aI2102541
atp2523
Rp2524
F4814.344
tp2525
a(g1
((lp2526
I268454953
aI67119647
atp2527
Rp2528
F4815.028
tp2529
a(g1
((lp2530
I1082379
aI279045
atp2531
Rp2532
F4816.348
tp2533
a(g1
((lp2534
I268446761
aI67115551
atp2535
Rp2536
F4816.62
tp2537
a(g1
((lp2538
I268442665
aI67119647
atp2539
Rp2540
F4817.08
tp2541
a(g1
((lp2542
I268442665
aI266757
atp2543
Rp2544
F4818.436
tp2545
a(g1
((lp2546
I1065995
aI279045
atp2547
Rp2548
F4818.756
tp2549
a(g1
((lp2550
I268454953
aI8394515
atp2551
Rp2552
F4819.708
tp2553
a(g1
((lp2554
I268442665
aI8406803
atp2555
Rp2556
F4820.388
tp2557
a(g1
((lp2558
I268446761
aI73730
atp2559
Rp2560
F4822.208
tp2561
a(g1
((lp2562
I8423187
aI1057803
atp2563
Rp2564
F4824.584
tp2565
a(g1
((lp2566
I268446761
aI67144223
atp2567
Rp2568
F4825.524
tp2569
a(g1
((lp2570
I2102541
aI134224677
atp2571
Rp2572
F4826.824
tp2573
a(g1
((lp2574
I268442665
aI33573149
atp2575
Rp2576
F4830.308
tp2577
a(g1
((lp2578
I33564957
aI134228773
atp2579
Rp2580
F4833.664
tp2581
a(g1
((lp2582
I1065995
aI270853
atp2583
Rp2584
F4839.916
tp2585
a(g1
((lp2586
I268446761
aI270853
atp2587
Rp2588
F4841.648
tp2589
a(g1
((lp2590
I268471337
aI134224677
atp2591
Rp2592
F4841.808
tp2593
a(g1
((lp2594
I268442665
aI33589533
atp2595
Rp2596
F4843.168
tp2597
a(g1
((lp2598
I268454953
aI8398611
atp2599
Rp2600
F4843.412
tp2601
a(g1
((lp2602
I268471337
aI33564957
atp2603
Rp2604
F4849.308
tp2605
a(g1
((lp2606
I134224677
aI33573149
atp2607
Rp2608
F4849.472
tp2609
a(g1
((lp2610
I8423187
aI134228773
atp2611
Rp2612
F4849.664
tp2613
a(g1
((lp2614
I268442665
aI1053707
atp2615
Rp2616
F4852.328
tp2617
a(g1
((lp2618
I268454953
aI134236965
atp2619
Rp2620
F4852.668
tp2621
a(g1
((lp2622
I268471337
aI33573149
atp2623
Rp2624
F4855.836
tp2625
a(g1
((lp2626
I134253349
aI33560861
atp2627
Rp2628
F4857.064
tp2629
a(g1
((lp2630
I268442665
aI8423187
atp2631
Rp2632
F4857.212
tp2633
a(g1
((lp2634
I2131213
aI279045
atp2635
Rp2636
F4860.14
tp2637
a(g1
((lp2638
I268454953
aI67115551
atp2639
Rp2640
F4862.568
tp2641
a(g1
((lp2642
I8398611
aI134228773
atp2643
Rp2644
F4865.308
tp2645
a(g1
((lp2646
I268471337
aI2102541
atp2647
Rp2648
F4866.568
tp2649
a(g1
((lp2650
I134228773
aI33560861
atp2651
Rp2652
F4867.916
tp2653
a(g1
((lp2654
I268446761
aI2102541
atp2655
Rp2656
F4874.616
tp2657
a(g1
((lp2658
I268442665
aI8398611
atp2659
Rp2660
F4875.292
tp2661
a(g1
((lp2662
I33589533
aI134228773
atp2663
Rp2664
F4875.788
tp2665
a(g1
((lp2666
I134224677
aI67115551
atp2667
Rp2668
F4875.908
tp2669
a(g1
((lp2670
I2114829
aI279045
atp2671
Rp2672
F4879.488
tp2673
a(g1
((lp2674
I134236965
aI33573149
atp2675
Rp2676
F4882.432
tp2677
a(g1
((lp2678
I268454953
aI33573149
atp2679
Rp2680
F4882.812
tp2681
a(g1
((lp2682
I268471337
aI295429
atp2683
Rp2684
F4884.42
tp2685
a(g1
((lp2686
I268471337
aI8394515
atp2687
Rp2688
F4886.4
tp2689
a(g1
((lp2690
I268446761
aI134236965
atp2691
Rp2692
F4887.888
tp2693
a(g1
((lp2694
I268471337
aI67127839
atp2695
Rp2696
F4888.656
tp2697
a(g1
((lp2698
I268446761
aI2131213
atp2699
Rp2700
F4889.348
tp2701
a(g1
((lp2702
I134228773
aI67127839
atp2703
Rp2704
F4889.368
tp2705
a(g1
((lp2706
I134236965
aI33560861
atp2707
Rp2708
F4890.508
tp2709
a(g1
((lp2710
I268454953
aI2102541
atp2711
Rp2712
F4892.74
tp2713
a(g1
((lp2714
I268442665
aI134228773
atp2715
Rp2716
F4893.164
tp2717
a(g1
((lp2718
I268446761
aI139523
atp2719
Rp2720
F4893.784
tp2721
a(g1
((lp2722
I268471337
aI134228773
atp2723
Rp2724
F4894.436
tp2725
a(g1
((lp2726
I268454953
aI8406803
atp2727
Rp2728
F4897.224
tp2729
a(g1
((lp2730
I270853
aI2114829
atp2731
Rp2732
F4900.044
tp2733
a(g1
((lp2734
I268446761
aI1053707
atp2735
Rp2736
F4901.848
tp2737
a(g1
((lp2738
I268471337
aI33560861
atp2739
Rp2740
F4909.88
tp2741
a(g1
((lp2742
I268454953
aI2114829
atp2743
Rp2744
F4911.304
tp2745
a(g1
((lp2746
I268442665
aI1082379
atp2747
Rp2748
F4912.112
tp2749
a(g1
((lp2750
I268442665
aI33564957
atp2751
Rp2752
F4912.608
tp2753
a(g1
((lp2754
I268442665
aI134236965
atp2755
Rp2756
F4914.64
tp2757
a(g1
((lp2758
I268446761
aI8406803
atp2759
Rp2760
F4915.364
tp2761
a(g1
((lp2762
I134236965
aI67127839
atp2763
Rp2764
F4916.908
tp2765
a(g1
((lp2766
I268446761
aI67127839
atp2767
Rp2768
F4923.9
tp2769
a(g1
((lp2770
I268471337
aI8406803
atp2771
Rp2772
F4924.648
tp2773
a(g1
((lp2774
I268446761
aI8423187
atp2775
Rp2776
F4924.82
tp2777
a(g1
((lp2778
I268446761
aI2114829
atp2779
Rp2780
F4926.664
tp2781
a(g1
((lp2782
I134236965
aI67115551
atp2783
Rp2784
F4928.476
tp2785
a(g1
((lp2786
I268454953
aI295429
atp2787
Rp2788
F4931.1
tp2789
a(g1
((lp2790
I268446761
aI134253349
atp2791
Rp2792
F4931.22
tp2793
a(g1
((lp2794
I134253349
aI67115551
atp2795
Rp2796
F4931.812
tp2797
a(g1
((lp2798
I2106637
aI67119647
atp2799
Rp2800
F4932.512
tp2801
a(g1
((lp2802
I268454953
aI33564957
atp2803
Rp2804
F4935.364
tp2805
a(g1
((lp2806
I268442665
aI2114829
atp2807
Rp2808
F4936.076
tp2809
a(g1
((lp2810
I1082379
aI134253349
atp2811
Rp2812
F4939.048
tp2813
a(g1
((lp2814
I268471337
aI67115551
atp2815
Rp2816
F4941.128
tp2817
a(g1
((lp2818
I268442665
aI134253349
atp2819
Rp2820
F4942.544
tp2821
a(g1
((lp2822
I2106637
aI266757
atp2823
Rp2824
F4943.364
tp2825
a(g1
((lp2826
I268471337
aI2106637
atp2827
Rp2828
F4944.336
tp2829
a(g1
((lp2830
I268446761
aI8394515
atp2831
Rp2832
F4946.184
tp2833
a(g1
((lp2834
I268454953
aI67127839
atp2835
Rp2836
F4950.552
tp2837
a(g1
((lp2838
I2106637
aI134228773
atp2839
Rp2840
F4954.636
tp2841
a(g1
((lp2842
I8406803
aI134236965
atp2843
Rp2844
F4956.136
tp2845
a(g1
((lp2846
I1065995
aI134236965
atp2847
Rp2848
F4959.028
tp2849
a(g1
((lp2850
I2106637
aI134253349
atp2851
Rp2852
F4960.196
tp2853
a(g1
((lp2854
I2106637
aI295429
atp2855
Rp2856
F4963.96
tp2857
a(g1
((lp2858
I268454953
aI1053707
atp2859
Rp2860
F4968.168
tp2861
a(g1
((lp2862
I268454953
aI2131213
atp2863
Rp2864
F4968.368
tp2865
a(g1
((lp2866
I268471337
aI98306
atp2867
Rp2868
F4970.624
tp2869
a(g1
((lp2870
I268471337
aI279045
atp2871
Rp2872
F4973.552
tp2873
a(g1
((lp2874
I268454953
aI8423187
atp2875
Rp2876
F4974.816
tp2877
a(g1
((lp2878
I268442665
aI2106637
atp2879
Rp2880
F4977.092
tp2881
a(g1
((lp2882
I268442665
aI2131213
atp2883
Rp2884
F4984.672
tp2885
a(g1
((lp2886
I134236965
aI67119647
atp2887
Rp2888
F4987.608
tp2889
a(g1
((lp2890
I164099
aI33589533
atp2891
Rp2892
F4989.892
tp2893
a(g1
((lp2894
I33564957
aI134236965
atp2895
Rp2896
F4991.132
tp2897
a(g1
((lp2898
I2131213
aI67119647
atp2899
Rp2900
F4991.836
tp2901
a(g1
((lp2902
I268442665
aI69634
atp2903
Rp2904
F4994.908
tp2905
a(g1
((lp2906
I268454953
aI279045
atp2907
Rp2908
F4995.156
tp2909
a(g1
((lp2910
I134224677
aI266757
atp2911
Rp2912
F4999.016
tp2913
a(g1
((lp2914
I268454953
aI1065995
atp2915
Rp2916
F4999.212
tp2917
a(g1
((lp2918
I2102541
aI134236965
atp2919
Rp2920
F4999.632
tp2921
a(g1
((lp2922
I134228773
aI33573149
atp2923
Rp2924
F4999.772
tp2925
a(g1
((lp2926
I268454953
aI1057803
atp2927
Rp2928
F5000.056
tp2929
a(g1
((lp2930
I1082379
aI33573149
atp2931
Rp2932
F5001.092
tp2933
a(g1
((lp2934
I134253349
aI67119647
atp2935
Rp2936
F5001.316
tp2937
a(g1
((lp2938
I8406803
aI134253349
atp2939
Rp2940
F5003.388
tp2941
a(g1
((lp2942
I1057803
aI134228773
atp2943
Rp2944
F5004.252
tp2945
a(g1
((lp2946
I1082379
aI33589533
atp2947
Rp2948
F5005.28
tp2949
a(g1
((lp2950
I134224677
aI67127839
atp2951
Rp2952
F5006.504
tp2953
a(g1
((lp2954
I268442665
aI135427
atp2955
Rp2956
F5006.708
tp2957
a(g1
((lp2958
I268471337
aI266757
atp2959
Rp2960
F5006.984
tp2961
a(g1
((lp2962
I33564957
aI134224677
atp2963
Rp2964
F5007.232
tp2965
a(g1
((lp2966
I1053707
aI67115551
atp2967
Rp2968
F5008.824
tp2969
a(g1
((lp2970
I268471337
aI8398611
atp2971
Rp2972
F5012.236
tp2973
a(g1
((lp2974
I1053707
aI67127839
atp2975
Rp2976
F5012.568
tp2977
a(g1
((lp2978
I134253349
aI2102541
atp2979
Rp2980
F5014.192
tp2981
a(g1
((lp2982
I268471337
aI135427
atp2983
Rp2984
F5014.284
tp2985
a(g1
((lp2986
I1065995
aI67115551
atp2987
Rp2988
F5014.484
tp2989
a(g1
((lp2990
I2106637
aI134236965
atp2991
Rp2992
F5014.948
tp2993
a(g1
((lp2994
I1053707
aI134224677
atp2995
Rp2996
F5015.688
tp2997
a(g1
((lp2998
I268471337
aI2114829
atp2999
Rp3000
F5016.672
tp3001
a(g1
((lp3002
I268454953
aI270853
atp3003
Rp3004
F5016.752
tp3005
a(g1
((lp3006
I8394515
aI134253349
atp3007
Rp3008
F5017.164
tp3009
a(g1
((lp3010
I8423187
aI295429
atp3011
Rp3012
F5017.66
tp3013
a(g1
((lp3014
I134224677
aI33560861
atp3015
Rp3016
F5018.728
tp3017
a(g1
((lp3018
I134253349
aI67127839
atp3019
Rp3020
F5019.048
tp3021
a(g1
((lp3022
I134224677
aI2114829
atp3023
Rp3024
F5019.608
tp3025
a(g1
((lp3026
I33589533
aI134236965
atp3027
Rp3028
F5019.648
tp3029
a(g1
((lp3030
I295429
aI67144223
atp3031
Rp3032
F5019.676
tp3033
a(g1
((lp3034
I268446761
aI279045
atp3035
Rp3036
F5019.94
tp3037
a(g1
((lp3038
I268446761
aI147715
atp3039
Rp3040
F5023.608
tp3041
a(g1
((lp3042
I268471337
aI270853
atp3043
Rp3044
F5024.308
tp3045
a(g1
((lp3046
I1065995
aI67127839
atp3047
Rp3048
F5024.476
tp3049
a(g1
((lp3050
I134253349
aI2114829
atp3051
Rp3052
F5025.7
tp3053
a(g1
((lp3054
I8394515
aI134228773
atp3055
Rp3056
F5026.388
tp3057
a(g1
((lp3058
I268446761
aI98306
atp3059
Rp3060
F5027.716
tp3061
a(g1
((lp3062
I268454953
aI67144223
atp3063
Rp3064
F5032.504
tp3065
a(g1
((lp3066
I268454953
aI2106637
atp3067
Rp3068
F5032.76
tp3069
a(g1
((lp3070
I1053707
aI134228773
atp3071
Rp3072
F5033.656
tp3073
a(g1
((lp3074
I8423187
aI164099
atp3075
Rp3076
F5033.8
tp3077
a(g1
((lp3078
I2114829
aI67144223
atp3079
Rp3080
F5037.924
tp3081
a(g1
((lp3082
I268471337
aI1053707
atp3083
Rp3084
F5037.956
tp3085
a(g1
((lp3086
I134224677
aI67144223
atp3087
Rp3088
F5040.788
tp3089
a(g1
((lp3090
I33564957
aI134253349
atp3091
Rp3092
F5047.624
tp3093
a(g1
((lp3094
I268471337
aI1057803
atp3095
Rp3096
F5051.392
tp3097
a(g1
((lp3098
I1082379
aI67144223
atp3099
Rp3100
F5051.932
tp3101
a(g1
((lp3102
I2114829
aI134236965
atp3103
Rp3104
F5053.36
tp3105
a(g1
((lp3106
I268442665
aI270853
atp3107
Rp3108
F5055.4
tp3109
a(g1
((lp3110
I268471337
aI164099
atp3111
Rp3112
F5056.324
tp3113
a(g1
((lp3114
I2131213
aI67127839
atp3115
Rp3116
F5057.832
tp3117
a(g1
((lp3118
I2114829
aI67119647
atp3119
Rp3120
F5060.048
tp3121
a(g1
((lp3122
I2131213
aI134228773
atp3123
Rp3124
F5060.976
tp3125
a(g1
((lp3126
I2114829
aI134228773
atp3127
Rp3128
F5061.744
tp3129
a(g1
((lp3130
I268446761
aI266757
atp3131
Rp3132
F5062.532
tp3133
a(g1
((lp3134
I134253349
aI295429
atp3135
Rp3136
F5063.56
tp3137
a(g1
((lp3138
I268454953
aI139523
atp3139
Rp3140
F5064.992
tp3141
a(g1
((lp3142
I268454953
aI266757
atp3143
Rp3144
F5065.548
tp3145
a(g1
((lp3146
I268471337
aI139523
atp3147
Rp3148
F5065.728
tp3149
a(g1
((lp3150
I268471337
aI1065995
atp3151
Rp3152
F5066.132
tp3153
a(g1
((lp3154
I164099
aI134253349
atp3155
Rp3156
F5067.98
tp3157
a(g1
((lp3158
I134253349
aI33573149
atp3159
Rp3160
F5070.656
tp3161
a(g1
((lp3162
I270853
aI134228773
atp3163
Rp3164
F5071.308
tp3165
a(g1
((lp3166
I268454953
aI1082379
atp3167
Rp3168
F5072.248
tp3169
a(g1
((lp3170
I73730
aI33564957
atp3171
Rp3172
F5072.388
tp3173
a(g1
((lp3174
I98306
aI134253349
atp3175
Rp3176
F5072.704
tp3177
a(g1
((lp3178
I134228773
aI67115551
atp3179
Rp3180
F5072.816
tp3181
a(g1
((lp3182
I1053707
aI134253349
atp3183
Rp3184
F5073.348
tp3185
a(g1
((lp3186
I268471337
aI69634
atp3187
Rp3188
F5077.164
tp3189
a(g1
((lp3190
I2114829
aI67127839
atp3191
Rp3192
F5080.264
tp3193
a(g1
((lp3194
I134224677
aI2131213
atp3195
Rp3196
F5081.852
tp3197
a(g1
((lp3198
I139523
aI67119647
atp3199
Rp3200
F5082.62
tp3201
a(g1
((lp3202
I98306
aI8423187
atp3203
Rp3204
F5083.324
tp3205
a(g1
((lp3206
I1065995
aI67119647
atp3207
Rp3208
F5085.464
tp3209
a(g1
((lp3210
I139523
aI1057803
atp3211
Rp3212
F5086.184
tp3213
a(g1
((lp3214
I8423187
aI134236965
atp3215
Rp3216
F5087.128
tp3217
a(g1
((lp3218
I266757
aI67115551
atp3219
Rp3220
F5087.588
tp3221
a(g1
((lp3222
I1082379
aI67115551
atp3223
Rp3224
F5089.472
tp3225
a(g1
((lp3226
I268442665
aI295429
atp3227
Rp3228
F5091.188
tp3229
a(g1
((lp3230
I8398611
aI134224677
atp3231
Rp3232
F5093.06
tp3233
a(g1
((lp3234
I8394515
aI139523
atp3235
Rp3236
F5096.528
tp3237
a(g1
((lp3238
I134224677
aI67119647
atp3239
Rp3240
F5098.28
tp3241
a(g1
((lp3242
I268442665
aI1065995
atp3243
Rp3244
F5098.94
tp3245
a(g1
((lp3246
I2131213
aI134236965
atp3247
Rp3248
F5102.508
tp3249
a(g1
((lp3250
I1082379
aI67119647
atp3251
Rp3252
F5102.724
tp3253
a(g1
((lp3254
I8394515
aI266757
atp3255
Rp3256
F5103.824
tp3257
a(g1
((lp3258
I33560861
aI266757
atp3259
Rp3260
F5104.796
tp3261
a(g1
((lp3262
I1053707
aI67119647
atp3263
Rp3264
F5108.084
tp3265
a(g1
((lp3266
I1082379
aI134236965
atp3267
Rp3268
F5111.04
tp3269
a(g1
((lp3270
I268446761
aI1065995
atp3271
Rp3272
F5111.416
tp3273
a(g1
((lp3274
I1057803
aI33564957
atp3275
Rp3276
F5112.236
tp3277
a(g1
((lp3278
I1053707
aI134236965
atp3279
Rp3280
F5113.008
tp3281
a(g1
((lp3282
I268442665
aI139523
atp3283
Rp3284
F5113.792
tp3285
a(g1
((lp3286
I1065995
aI67144223
atp3287
Rp3288
F5113.956
tp3289
a(g1
((lp3290
I1057803
aI67115551
atp3291
Rp3292
F5114.192
tp3293
a(g1
((lp3294
I8398611
aI270853
atp3295
Rp3296
F5114.452
tp3297
a(g1
((lp3298
I1057803
aI33589533
atp3299
Rp3300
F5116.296
tp3301
a(g1
((lp3302
I2102541
aI67119647
atp3303
Rp3304
F5116.652
tp3305
a(g1
((lp3306
I8406803
aI134224677
atp3307
Rp3308
F5116.936
tp3309
a(g1
((lp3310
I73730
aI2106637
atp3311
Rp3312
F5116.98
tp3313
a(g1
((lp3314
I2102541
aI134228773
atp3315
Rp3316
F5117.8
tp3317
a(g1
((lp3318
I1053707
aI33560861
atp3319
Rp3320
F5118.916
tp3321
a(g1
((lp3322
I268446761
aI1082379
atp3323
Rp3324
F5119.512
tp3325
a(g1
((lp3326
I2106637
aI134224677
atp3327
Rp3328
F5121.12
tp3329
a(g1
((lp3330
I268442665
aI147715
atp3331
Rp3332
F5123.564
tp3333
a(g1
((lp3334
I69634
aI266757
atp3335
Rp3336
F5123.964
tp3337
a(g1
((lp3338
I2131213
aI67144223
atp3339
Rp3340
F5124.896
tp3341
a(g1
((lp3342
I33564957
aI270853
atp3343
Rp3344
F5129.452
tp3345
a(g1
((lp3346
I8394515
aI135427
atp3347
Rp3348
F5130.552
tp3349
a(g1
((lp3350
I268471337
aI73730
atp3351
Rp3352
F5130.86
tp3353
a(g1
((lp3354
I139523
aI134228773
atp3355
Rp3356
F5131.004
tp3357
a(g1
((lp3358
I268442665
aI73730
atp3359
Rp3360
F5133.328
tp3361
a(g1
((lp3362
I164099
aI67144223
atp3363
Rp3364
F5135.604
tp3365
a(g1
((lp3366
I270853
aI67119647
atp3367
Rp3368
F5137.34
tp3369
a(g1
((lp3370
I2106637
aI67144223
atp3371
Rp3372
F5138.588
tp3373
a(g1
((lp3374
I295429
aI67127839
atp3375
Rp3376
F5139.852
tp3377
a(g1
((lp3378
I1053707
aI135427
atp3379
Rp3380
F5141.22
tp3381
a(g1
((lp3382
I279045
aI67119647
atp3383
Rp3384
F5141.868
tp3385
a(g1
((lp3386
I33573149
aI266757
atp3387
Rp3388
F5145.412
tp3389
a(g1
((lp3390
I270853
aI33589533
atp3391
Rp3392
F5146.048
tp3393
a(g1
((lp3394
I33589533
aI295429
atp3395
Rp3396
F5146.64
tp3397
a(g1
((lp3398
I8398611
aI134253349
atp3399
Rp3400
F5146.828
tp3401
a(g1
((lp3402
I1057803
aI67144223
atp3403
Rp3404
F5147.456
tp3405
a(g1
((lp3406
I268442665
aI1057803
atp3407
Rp3408
F5147.728
tp3409
a(g1
((lp3410
I2131213
aI67115551
atp3411
Rp3412
F5151.572
tp3413
a(g1
((lp3414
I1057803
aI67127839
atp3415
Rp3416
F5156.74
tp3417
a(g1
((lp3418
I69634
aI67115551
atp3419
Rp3420
F5158.512
tp3421
a(g1
((lp3422
I268471337
aI81922
atp3423
Rp3424
F5158.928
tp3425
a(g1
((lp3426
I1082379
aI67127839
atp3427
Rp3428
F5160.76
tp3429
a(g1
((lp3430
I69634
aI2102541
atp3431
Rp3432
F5162.7
tp3433
a(g1
((lp3434
I268442665
aI279045
atp3435
Rp3436
F5164.196
tp3437
a(g1
((lp3438
I164099
aI134228773
atp3439
Rp3440
F5164.764
tp3441
a(g1
((lp3442
I268454953
aI164099
atp3443
Rp3444
F5167.132
tp3445
a(g1
((lp3446
I2102541
aI67127839
atp3447
Rp3448
F5169.168
tp3449
a(g1
((lp3450
I73730
aI1057803
atp3451
Rp3452
F5169.84
tp3453
a(g1
((lp3454
I135427
aI33560861
atp3455
Rp3456
F5170.704
tp3457
a(g1
((lp3458
I8406803
aI134228773
atp3459
Rp3460
F5171.096
tp3461
a(g1
((lp3462
I268471337
aI147715
atp3463
Rp3464
F5172.708
tp3465
a(g1
((lp3466
I135427
aI67115551
atp3467
Rp3468
F5172.812
tp3469
a(g1
((lp3470
I268446761
aI69634
atp3471
Rp3472
F5173.236
tp3473
a(g1
((lp3474
I33589533
aI266757
atp3475
Rp3476
F5173.888
tp3477
a(g1
((lp3478
I33564957
aI266757
atp3479
Rp3480
F5175.484
tp3481
a(g1
((lp3482
I134236965
aI67144223
atp3483
Rp3484
F5175.52
tp3485
a(g1
((lp3486
I268454953
aI147715
atp3487
Rp3488
F5176.168
tp3489
a(g1
((lp3490
I268446761
aI164099
atp3491
Rp3492
F5179.784
tp3493
a(g1
((lp3494
I268442665
aI98306
atp3495
Rp3496
F5180.168
tp3497
a(g1
((lp3498
I134228773
aI266757
atp3499
Rp3500
F5180.432
tp3501
a(g1
((lp3502
I1082379
aI134224677
atp3503
Rp3504
F5180.876
tp3505
a(g1
((lp3506
I98306
aI1082379
atp3507
Rp3508
F5182.104
tp3509
a(g1
((lp3510
I8398611
aI134236965
atp3511
Rp3512
F5182.376
tp3513
a(g1
((lp3514
I270853
aI33560861
atp3515
Rp3516
F5186.748
tp3517
a(g1
((lp3518
I268446761
aI81922
atp3519
Rp3520
F5188.56
tp3521
a(g1
((lp3522
I139523
aI134253349
atp3523
Rp3524
F5189.332
tp3525
a(g1
((lp3526
I81922
aI8394515
atp3527
Rp3528
F5189.444
tp3529
a(g1
((lp3530
I8406803
aI135427
atp3531
Rp3532
F5191.544
tp3533
a(g1
((lp3534
I266757
aI67127839
atp3535
Rp3536
F5191.8
tp3537
a(g1
((lp3538
I134236965
aI266757
atp3539
Rp3540
F5193.436
tp3541
a(g1
((lp3542
I139523
aI134236965
atp3543
Rp3544
F5194.0
tp3545
a(g1
((lp3546
I1065995
aI134228773
atp3547
Rp3548
F5195.22
tp3549
a(g1
((lp3550
I268442665
aI164099
atp3551
Rp3552
F5196.36
tp3553
a(g1
((lp3554
I1053707
aI33564957
atp3555
Rp3556
F5196.884
tp3557
a(g1
((lp3558
I135427
aI134224677
atp3559
Rp3560
F5197.312
tp3561
a(g1
((lp3562
I1053707
aI67144223
atp3563
Rp3564
F5197.428
tp3565
a(g1
((lp3566
I73730
aI67119647
atp3567
Rp3568
F5197.824
tp3569
a(g1
((lp3570
I270853
aI67144223
atp3571
Rp3572
F5201.952
tp3573
a(g1
((lp3574
I147715
aI33564957
atp3575
Rp3576
F5202.504
tp3577
a(g1
((lp3578
I98306
aI33589533
atp3579
Rp3580
F5203.244
tp3581
a(g1
((lp3582
I295429
aI67119647
atp3583
Rp3584
F5205.824
tp3585
a(g1
((lp3586
I8423187
aI134224677
atp3587
Rp3588
F5206.336
tp3589
a(g1
((lp3590
I1057803
aI134224677
atp3591
Rp3592
F5208.452
tp3593
a(g1
((lp3594
I135427
aI2102541
atp3595
Rp3596
F5209.556
tp3597
a(g1
((lp3598
I147715
aI67144223
atp3599
Rp3600
F5210.884
tp3601
a(g1
((lp3602
I268454953
aI135427
atp3603
Rp3604
F5213.584
tp3605
a(g1
((lp3606
I1082379
aI33560861
atp3607
Rp3608
F5214.348
tp3609
a(g1
((lp3610
I279045
aI67127839
atp3611
Rp3612
F5216.348
tp3613
a(g1
((lp3614
I1065995
aI134253349
atp3615
Rp3616
F5216.92
tp3617
a(g1
((lp3618
I134236965
aI295429
atp3619
Rp3620
F5218.708
tp3621
a(g1
((lp3622
I134253349
aI279045
atp3623
Rp3624
F5220.892
tp3625
a(g1
((lp3626
I268454953
aI73730
atp3627
Rp3628
F5220.976
tp3629
a(g1
((lp3630
I268454953
aI81922
atp3631
Rp3632
F5221.412
tp3633
a(g1
((lp3634
I270853
aI134253349
atp3635
Rp3636
F5221.636
tp3637
a(g1
((lp3638
I33573149
aI279045
atp3639
Rp3640
F5221.88
tp3641
a(g1
((lp3642
I268442665
aI81922
atp3643
Rp3644
F5225.44
tp3645
a(g1
((lp3646
I1065995
aI33589533
atp3647
Rp3648
F5226.28
tp3649
a(g1
((lp3650
I73730
aI134228773
atp3651
Rp3652
F5226.316
tp3653
a(g1
((lp3654
I1082379
aI134228773
atp3655
Rp3656
F5226.528
tp3657
a(g1
((lp3658
I81922
aI67144223
atp3659
Rp3660
F5228.812
tp3661
a(g1
((lp3662
I33573149
aI295429
atp3663
Rp3664
F5230.128
tp3665
a(g1
((lp3666
I98306
aI295429
atp3667
Rp3668
F5230.672
tp3669
a(g1
((lp3670
I73730
aI134236965
atp3671
Rp3672
F5234.012
tp3673
a(g1
((lp3674
I1082379
aI164099
atp3675
Rp3676
F5234.164
tp3677
a(g1
((lp3678
I1065995
aI33564957
atp3679
Rp3680
F5234.324
tp3681
a(g1
((lp3682
I139523
aI33564957
atp3683
Rp3684
F5234.572
tp3685
a(g1
((lp3686
I268446761
aI135427
atp3687
Rp3688
F5235.032
tp3689
a(g1
((lp3690
I8394515
aI134236965
atp3691
Rp3692
F5235.496
tp3693
a(g1
((lp3694
I268446761
aI295429
atp3695
Rp3696
F5236.064
tp3697
a(g1
((lp3698
I1053707
aI33573149
atp3699
Rp3700
F5237.568
tp3701
a(g1
((lp3702
I69634
aI1053707
atp3703
Rp3704
F5241.02
tp3705
a(g1
((lp3706
I8394515
aI164099
atp3707
Rp3708
F5241.524
tp3709
a(g1
((lp3710
I69634
aI1082379
atp3711
Rp3712
F5241.7
tp3713
a(g1
((lp3714
I2106637
aI67115551
atp3715
Rp3716
F5242.436
tp3717
a(g1
((lp3718
I98306
aI33564957
atp3719
Rp3720
F5243.78
tp3721
a(g1
((lp3722
I8406803
aI164099
atp3723
Rp3724
F5245.184
tp3725
a(g1
((lp3726
I33560861
aI279045
atp3727
Rp3728
F5245.588
tp3729
a(g1
((lp3730
I270853
aI134236965
atp3731
Rp3732
F5246.524
tp3733
a(g1
((lp3734
I279045
aI67144223
atp3735
Rp3736
F5247.624
tp3737
a(g1
((lp3738
I295429
aI67115551
atp3739
Rp3740
F5247.812
tp3741
a(g1
((lp3742
I2114829
aI67115551
atp3743
Rp3744
F5252.296
tp3745
a(g1
((lp3746
I69634
aI134224677
atp3747
Rp3748
F5253.988
tp3749
a(g1
((lp3750
I270853
aI134224677
atp3751
Rp3752
F5257.42
tp3753
a(g1
((lp3754
I1065995
aI134224677
atp3755
Rp3756
F5258.052
tp3757
a(g1
((lp3758
I73730
aI8398611
atp3759
Rp3760
F5258.236
tp3761
a(g1
((lp3762
I1057803
aI134236965
atp3763
Rp3764
F5258.524
tp3765
a(g1
((lp3766
I134224677
aI279045
atp3767
Rp3768
F5259.696
tp3769
a(g1
((lp3770
I164099
aI33560861
atp3771
Rp3772
F5260.492
tp3773
a(g1
((lp3774
I134236965
aI279045
atp3775
Rp3776
F5261.364
tp3777
a(g1
((lp3778
I8394515
aI295429
atp3779
Rp3780
F5262.18
tp3781
a(g1
((lp3782
I268454953
aI69634
atp3783
Rp3784
F5262.496
tp3785
a(g1
((lp3786
I1057803
aI134253349
atp3787
Rp3788
F5263.708
tp3789
a(g1
((lp3790
I2106637
aI67127839
atp3791
Rp3792
F5264.792
tp3793
a(g1
((lp3794
I147715
aI2106637
atp3795
Rp3796
F5265.424
tp3797
a(g1
((lp3798
I8394515
aI147715
atp3799
Rp3800
F5266.184
tp3801
a(g1
((lp3802
I98306
aI164099
atp3803
Rp3804
F5268.144
tp3805
a(g1
((lp3806
I164099
aI2131213
atp3807
Rp3808
F5270.108
tp3809
a(g1
((lp3810
I139523
aI33573149
atp3811
Rp3812
F5270.884
tp3813
a(g1
((lp3814
I147715
aI67115551
atp3815
Rp3816
F5273.188
tp3817
a(g1
((lp3818
I73730
aI33560861
atp3819
Rp3820
F5274.556
tp3821
a(g1
((lp3822
I1053707
aI147715
atp3823
Rp3824
F5277.68
tp3825
a(g1
((lp3826
I1065995
aI33573149
atp3827
Rp3828
F5278.76
tp3829
a(g1
((lp3830
I270853
aI67115551
atp3831
Rp3832
F5279.884
tp3833
a(g1
((lp3834
I81922
aI8423187
atp3835
Rp3836
F5281.528
tp3837
a(g1
((lp3838
I1082379
aI33564957
atp3839
Rp3840
F5283.936
tp3841
a(g1
((lp3842
I81922
aI270853
atp3843
Rp3844
F5285.652
tp3845
a(g1
((lp3846
I69634
aI33564957
atp3847
Rp3848
F5287.188
tp3849
a(g1
((lp3850
I81922
aI33573149
atp3851
Rp3852
F5287.704
tp3853
a(g1
((lp3854
I139523
aI2102541
atp3855
Rp3856
F5287.944
tp3857
a(g1
((lp3858
I1082379
aI147715
atp3859
Rp3860
F5289.024
tp3861
a(g1
((lp3862
I1053707
aI33589533
atp3863
Rp3864
F5290.564
tp3865
a(g1
((lp3866
I8398611
aI279045
atp3867
Rp3868
F5292.48
tp3869
a(g1
((lp3870
I147715
aI2131213
atp3871
Rp3872
F5292.524
tp3873
a(g1
((lp3874
I266757
aI67144223
atp3875
Rp3876
F5292.728
tp3877
a(g1
((lp3878
I98306
aI270853
atp3879
Rp3880
F5292.88
tp3881
a(g1
((lp3882
I8423187
aI270853
atp3883
Rp3884
F5293.028
tp3885
a(g1
((lp3886
I8423187
aI139523
atp3887
Rp3888
F5293.428
tp3889
a(g1
((lp3890
I164099
aI33564957
atp3891
Rp3892
F5294.328
tp3893
a(g1
((lp3894
I164099
aI33573149
atp3895
Rp3896
F5296.572
tp3897
a(g1
((lp3898
I1057803
aI33560861
atp3899
Rp3900
F5297.496
tp3901
a(g1
((lp3902
I73730
aI67127839
atp3903
Rp3904
F5297.964
tp3905
a(g1
((lp3906
I164099
aI134236965
atp3907
Rp3908
F5298.4
tp3909
a(g1
((lp3910
I69634
aI33573149
atp3911
Rp3912
F5298.504
tp3913
a(g1
((lp3914
I73730
aI8406803
atp3915
Rp3916
F5300.16
tp3917
a(g1
((lp3918
I69634
aI67144223
atp3919
Rp3920
F5300.76
tp3921
a(g1
((lp3922
I98306
aI67144223
atp3923
Rp3924
F5302.364
tp3925
a(g1
((lp3926
I8406803
aI295429
atp3927
Rp3928
F5303.564
tp3929
a(g1
((lp3930
I270853
aI67127839
atp3931
Rp3932
F5306.156
tp3933
a(g1
((lp3934
I81922
aI134228773
atp3935
Rp3936
F5308.232
tp3937
a(g1
((lp3938
I81922
aI33560861
atp3939
Rp3940
F5311.048
tp3941
a(g1
((lp3942
I73730
aI2131213
atp3943
Rp3944
F5312.056
tp3945
a(g1
((lp3946
I139523
aI33560861
atp3947
Rp3948
F5313.16
tp3949
a(g1
((lp3950
I73730
aI33573149
atp3951
Rp3952
F5313.604
tp3953
a(g1
((lp3954
I69634
aI8423187
atp3955
Rp3956
F5314.136
tp3957
a(g1
((lp3958
I33589533
aI279045
atp3959
Rp3960
F5314.144
tp3961
a(g1
((lp3962
I1065995
aI164099
atp3963
Rp3964
F5315.34
tp3965
a(g1
((lp3966
I266757
aI67119647
atp3967
Rp3968
F5316.06
tp3969
a(g1
((lp3970
I139523
aI270853
atp3971
Rp3972
F5316.548
tp3973
a(g1
((lp3974
I164099
aI2106637
atp3975
Rp3976
F5317.568
tp3977
a(g1
((lp3978
I135427
aI67119647
atp3979
Rp3980
F5317.932
tp3981
a(g1
((lp3982
I2102541
aI67144223
atp3983
Rp3984
F5318.36
tp3985
a(g1
((lp3986
I69634
aI8394515
atp3987
Rp3988
F5321.376
tp3989
a(g1
((lp3990
I8423187
aI266757
atp3991
Rp3992
F5321.628
tp3993
a(g1
((lp3994
I8398611
aI147715
atp3995
Rp3996
F5322.304
tp3997
a(g1
((lp3998
I139523
aI2106637
atp3999
Rp4000
F5325.136
tp4001
a(g1
((lp4002
I33564957
aI295429
atp4003
Rp4004
F5325.252
tp4005
a(g1
((lp4006
I69634
aI2106637
atp4007
Rp4008
F5328.616
tp4009
a(g1
((lp4010
I69634
aI134236965
atp4011
Rp4012
F5329.812
tp4013
a(g1
((lp4014
I81922
aI33564957
atp4015
Rp4016
F5331.576
tp4017
a(g1
((lp4018
I81922
aI134253349
atp4019
Rp4020
F5331.64
tp4021
a(g1
((lp4022
I139523
aI2131213
atp4023
Rp4024
F5331.656
tp4025
a(g1
((lp4026
I164099
aI295429
atp4027
Rp4028
F5331.832
tp4029
a(g1
((lp4030
I268454953
aI98306
atp4031
Rp4032
F5332.984
tp4033
a(g1
((lp4034
I139523
aI67144223
atp4035
Rp4036
F5335.272
tp4037
a(g1
((lp4038
I139523
aI67127839
atp4039
Rp4040
F5336.4
tp4041
a(g1
((lp4042
I139523
aI8398611
atp4043
Rp4044
F5336.724
tp4045
a(g1
((lp4046
I81922
aI1082379
atp4047
Rp4048
F5336.784
tp4049
a(g1
((lp4050
I98306
aI1057803
atp4051
Rp4052
F5337.312
tp4053
a(g1
((lp4054
I139523
aI134224677
atp4055
Rp4056
F5338.5
tp4057
a(g1
((lp4058
I134253349
aI266757
atp4059
Rp4060
F5338.852
tp4061
a(g1
((lp4062
I69634
aI1065995
atp4063
Rp4064
F5340.196
tp4065
a(g1
((lp4066
I33564957
aI279045
atp4067
Rp4068
F5341.264
tp4069
a(g1
((lp4070
I73730
aI134253349
atp4071
Rp4072
F5343.544
tp4073
a(g1
((lp4074
I81922
aI134224677
atp4075
Rp4076
F5344.444
tp4077
a(g1
((lp4078
I8406803
aI139523
atp4079
Rp4080
F5344.444
tp4081
a(g1
((lp4082
I134228773
aI295429
atp4083
Rp4084
F5344.796
tp4085
a(g1
((lp4086
I98306
aI134224677
atp4087
Rp4088
F5347.348
tp4089
a(g1
((lp4090
I98306
aI2131213
atp4091
Rp4092
F5350.176
tp4093
a(g1
((lp4094
I139523
aI33589533
atp4095
Rp4096
F5350.428
tp4097
a(g1
((lp4098
I81922
aI8398611
atp4099
Rp4100
F5350.684
tp4101
a(g1
((lp4102
I147715
aI2114829
atp4103
Rp4104
F5352.34
tp4105
a(g1
((lp4106
I147715
aI266757
atp4107
Rp4108
F5352.62
tp4109
a(g1
((lp4110
I135427
aI2106637
atp4111
Rp4112
F5353.664
tp4113
a(g1
((lp4114
I73730
aI1053707
atp4115
Rp4116
F5354.024
tp4117
a(g1
((lp4118
I135427
aI67127839
atp4119
Rp4120
F5355.52
tp4121
a(g1
((lp4122
I135427
aI266757
atp4123
Rp4124
F5356.3
tp4125
a(g1
((lp4126
I81922
aI67119647
atp4127
Rp4128
F5356.948
tp4129
a(g1
((lp4130
I147715
aI134228773
atp4131
Rp4132
F5357.692
tp4133
a(g1
((lp4134
I8423187
aI147715
atp4135
Rp4136
F5360.252
tp4137
a(g1
((lp4138
I73730
aI33589533
atp4139
Rp4140
F5361.184
tp4141
a(g1
((lp4142
I73730
aI2114829
atp4143
Rp4144
F5361.476
tp4145
a(g1
((lp4146
I69634
aI1057803
atp4147
Rp4148
F5363.796
tp4149
a(g1
((lp4150
I8406803
aI147715
atp4151
Rp4152
F5364.092
tp4153
a(g1
((lp4154
I1065995
aI135427
atp4155
Rp4156
F5364.968
tp4157
a(g1
((lp4158
I81922
aI33589533
atp4159
Rp4160
F5365.412
tp4161
a(g1
((lp4162
I1057803
aI33573149
atp4163
Rp4164
F5365.7
tp4165
a(g1
((lp4166
I69634
aI147715
atp4167
Rp4168
F5366.072
tp4169
a(g1
((lp4170
I135427
aI33589533
atp4171
Rp4172
F5369.272
tp4173
a(g1
((lp4174
I147715
aI134253349
atp4175
Rp4176
F5369.644
tp4177
a(g1
((lp4178
I147715
aI33560861
atp4179
Rp4180
F5369.836
tp4181
a(g1
((lp4182
I73730
aI8394515
atp4183
Rp4184
F5370.192
tp4185
a(g1
((lp4186
I8423187
aI279045
atp4187
Rp4188
F5371.456
tp4189
a(g1
((lp4190
I69634
aI8398611
atp4191
Rp4192
F5371.584
tp4193
a(g1
((lp4194
I8406803
aI266757
atp4195
Rp4196
F5371.764
tp4197
a(g1
((lp4198
I139523
aI1082379
atp4199
Rp4200
F5372.984
tp4201
a(g1
((lp4202
I1065995
aI33560861
atp4203
Rp4204
F5373.78
tp4205
a(g1
((lp4206
I147715
aI270853
atp4207
Rp4208
F5376.5
tp4209
a(g1
((lp4210
I81922
aI2131213
atp4211
Rp4212
F5377.464
tp4213
a(g1
((lp4214
I8398611
aI295429
atp4215
Rp4216
F5378.616
tp4217
a(g1
((lp4218
I270853
aI33573149
atp4219
Rp4220
F5380.384
tp4221
a(g1
((lp4222
I81922
aI1053707
atp4223
Rp4224
F5382.512
tp4225
a(g1
((lp4226
I69634
aI33589533
atp4227
Rp4228
F5383.036
tp4229
a(g1
((lp4230
I33560861
aI295429
atp4231
Rp4232
F5383.644
tp4233
a(g1
((lp4234
I147715
aI134236965
atp4235
Rp4236
F5383.884
tp4237
a(g1
((lp4238
I1057803
aI147715
atp4239
Rp4240
F5385.436
tp4241
a(g1
((lp4242
I98306
aI67119647
atp4243
Rp4244
F5386.312
tp4245
a(g1
((lp4246
I135427
aI134253349
atp4247
Rp4248
F5387.78
tp4249
a(g1
((lp4250
I73730
aI1082379
atp4251
Rp4252
F5388.332
tp4253
a(g1
((lp4254
I8394515
aI270853
atp4255
Rp4256
F5389.404
tp4257
a(g1
((lp4258
I73730
aI270853
atp4259
Rp4260
F5390.908
tp4261
a(g1
((lp4262
I69634
aI67119647
atp4263
Rp4264
F5391.932
tp4265
a(g1
((lp4266
I98306
aI33573149
atp4267
Rp4268
F5392.156
tp4269
a(g1
((lp4270
I98306
aI67115551
atp4271
Rp4272
F5392.948
tp4273
a(g1
((lp4274
I69634
aI2114829
atp4275
Rp4276
F5394.428
tp4277
a(g1
((lp4278
I73730
aI134224677
atp4279
Rp4280
F5398.668
tp4281
a(g1
((lp4282
I147715
aI67119647
atp4283
Rp4284
F5399.388
tp4285
a(g1
((lp4286
I164099
aI2102541
atp4287
Rp4288
F5400.0
tp4289
a(g1
((lp4290
I69634
aI134253349
atp4291
Rp4292
F5400.108
tp4293
a(g1
((lp4294
I134228773
aI279045
atp4295
Rp4296
F5400.58
tp4297
a(g1
((lp4298
I134224677
aI295429
atp4299
Rp4300
F5401.504
tp4301
a(g1
((lp4302
I8398611
aI266757
atp4303
Rp4304
F5401.852
tp4305
a(g1
((lp4306
I164099
aI134224677
atp4307
Rp4308
F5402.508
tp4309
a(g1
((lp4310
I81922
aI1065995
atp4311
Rp4312
F5403.944
tp4313
a(g1
((lp4314
I135427
aI8398611
atp4315
Rp4316
F5404.608
tp4317
a(g1
((lp4318
I69634
aI67127839
atp4319
Rp4320
F5405.532
tp4321
a(g1
((lp4322
I135427
aI67144223
atp4323
Rp4324
F5406.368
tp4325
a(g1
((lp4326
I98306
aI134236965
atp4327
Rp4328
F5406.576
tp4329
a(g1
((lp4330
I135427
aI33573149
atp4331
Rp4332
F5407.584
tp4333
a(g1
((lp4334
I81922
aI8406803
atp4335
Rp4336
F5408.356
tp4337
a(g1
((lp4338
I98306
aI279045
atp4339
Rp4340
F5409.4
tp4341
a(g1
((lp4342
I147715
aI67127839
atp4343
Rp4344
F5410.0
tp4345
a(g1
((lp4346
I139523
aI1053707
atp4347
Rp4348
F5412.412
tp4349
a(g1
((lp4350
I69634
aI135427
atp4351
Rp4352
F5413.032
tp4353
a(g1
((lp4354
I279045
aI67115551
atp4355
Rp4356
F5413.364
tp4357
a(g1
((lp4358
I135427
aI134236965
atp4359
Rp4360
F5415.516
tp4361
a(g1
((lp4362
I164099
aI2114829
atp4363
Rp4364
F5416.128
tp4365
a(g1
((lp4366
I73730
aI1065995
atp4367
Rp4368
F5416.276
tp4369
a(g1
((lp4370
I98306
aI266757
atp4371
Rp4372
F5417.428
tp4373
a(g1
((lp4374
I73730
aI139523
atp4375
Rp4376
F5417.6
tp4377
a(g1
((lp4378
I8398611
aI164099
atp4379
Rp4380
F5419.064
tp4381
a(g1
((lp4382
I164099
aI270853
atp4383
Rp4384
F5419.172
tp4385
a(g1
((lp4386
I147715
aI2102541
atp4387
Rp4388
F5421.956
tp4389
a(g1
((lp4390
I147715
aI33573149
atp4391
Rp4392
F5422.284
tp4393
a(g1
((lp4394
I8394515
aI279045
atp4395
Rp4396
F5422.896
tp4397
a(g1
((lp4398
I135427
aI134228773
atp4399
Rp4400
F5423.984
tp4401
a(g1
((lp4402
I135427
aI33564957
atp4403
Rp4404
F5425.5
tp4405
a(g1
((lp4406
I81922
aI2102541
atp4407
Rp4408
F5426.056
tp4409
a(g1
((lp4410
I135427
aI1057803
atp4411
Rp4412
F5427.956
tp4413
a(g1
((lp4414
I81922
aI1057803
atp4415
Rp4416
F5430.028
tp4417
a(g1
((lp4418
I81922
aI266757
atp4419
Rp4420
F5431.42
tp4421
a(g1
((lp4422
I69634
aI8406803
atp4423
Rp4424
F5432.884
tp4425
a(g1
((lp4426
I98306
aI2106637
atp4427
Rp4428
F5433.512
tp4429
a(g1
((lp4430
I147715
aI134224677
atp4431
Rp4432
F5435.068
tp4433
a(g1
((lp4434
I73730
aI2102541
atp4435
Rp4436
F5435.464
tp4437
a(g1
((lp4438
I147715
aI33589533
atp4439
Rp4440
F5436.072
tp4441
a(g1
((lp4442
I73730
aI67115551
atp4443
Rp4444
F5436.092
tp4445
a(g1
((lp4446
I69634
aI279045
atp4447
Rp4448
F5441.852
tp4449
a(g1
((lp4450
I98306
aI8394515
atp4451
Rp4452
F5442.46
tp4453
a(g1
((lp4454
I139523
aI2114829
atp4455
Rp4456
F5444.32
tp4457
a(g1
((lp4458
I98306
aI134228773
atp4459
Rp4460
F5446.048
tp4461
a(g1
((lp4462
I139523
aI266757
atp4463
Rp4464
F5449.304
tp4465
a(g1
((lp4466
I69634
aI33560861
atp4467
Rp4468
F5449.652
tp4469
a(g1
((lp4470
I98306
aI33560861
atp4471
Rp4472
F5450.12
tp4473
a(g1
((lp4474
I81922
aI67115551
atp4475
Rp4476
F5452.42
tp4477
a(g1
((lp4478
I1065995
aI139523
atp4479
Rp4480
F5453.152
tp4481
a(g1
((lp4482
I81922
aI295429
atp4483
Rp4484
F5453.972
tp4485
a(g1
((lp4486
I81922
aI2106637
atp4487
Rp4488
F5454.652
tp4489
a(g1
((lp4490
I98306
aI67127839
atp4491
Rp4492
F5454.904
tp4493
a(g1
((lp4494
I164099
aI67119647
atp4495
Rp4496
F5456.792
tp4497
a(g1
((lp4498
I98306
aI8406803
atp4499
Rp4500
F5458.528
tp4501
a(g1
((lp4502
I8406803
aI270853
atp4503
Rp4504
F5459.94
tp4505
a(g1
((lp4506
I164099
aI67127839
atp4507
Rp4508
F5460.608
tp4509
a(g1
((lp4510
I1065995
aI147715
atp4511
Rp4512
F5462.696
tp4513
a(g1
((lp4514
I98306
aI1053707
atp4515
Rp4516
F5466.916
tp4517
a(g1
((lp4518
I135427
aI279045
atp4519
Rp4520
F5467.268
tp4521
a(g1
((lp4522
I139523
aI67115551
atp4523
Rp4524
F5467.908
tp4525
a(g1
((lp4526
I73730
aI279045
atp4527
Rp4528
F5469.16
tp4529
a(g1
((lp4530
I1057803
aI164099
atp4531
Rp4532
F5469.448
tp4533
a(g1
((lp4534
I8406803
aI279045
atp4535
Rp4536
F5469.996
tp4537
a(g1
((lp4538
I69634
aI134228773
atp4539
Rp4540
F5472.924
tp4541
a(g1
((lp4542
I147715
aI279045
atp4543
Rp4544
F5476.636
tp4545
a(g1
((lp4546
I135427
aI295429
atp4547
Rp4548
F5477.976
tp4549
a(g1
((lp4550
I147715
aI295429
atp4551
Rp4552
F5478.972
tp4553
a(g1
((lp4554
I98306
aI8398611
atp4555
Rp4556
F5479.556
tp4557
a(g1
((lp4558
I73730
aI8423187
atp4559
Rp4560
F5482.94
tp4561
a(g1
((lp4562
I81922
aI67127839
atp4563
Rp4564
F5483.228
tp4565
a(g1
((lp4566
I8423187
aI135427
atp4567
Rp4568
F5489.688
tp4569
a(g1
((lp4570
I98306
aI2114829
atp4571
Rp4572
F5494.948
tp4573
a(g1
((lp4574
I69634
aI295429
atp4575
Rp4576
F5498.544
tp4577
a(g1
((lp4578
I135427
aI2114829
atp4579
Rp4580
F5502.068
tp4581
a(g1
((lp4582
I1082379
aI135427
atp4583
Rp4584
F5512.368
tp4585
a(g1
((lp4586
I73730
aI266757
atp4587
Rp4588
F5513.588
tp4589
a(g1
((lp4590
I135427
aI2131213
atp4591
Rp4592
F5517.824
tp4593
a(g1
((lp4594
I81922
aI135427
atp4595
Rp4596
F5524.48
tp4597
a(g1
((lp4598
I81922
aI134236965
atp4599
Rp4600
F5525.704
tp4601
a(g1
((lp4602
I139523
aI295429
atp4603
Rp4604
F5525.736
tp4605
a(g1
((lp4606
I73730
aI67144223
atp4607
Rp4608
F5526.44
tp4609
a(g1
((lp4610
I1053707
aI164099
atp4611
Rp4612
F5531.78
tp4613
a(g1
((lp4614
I98306
aI1065995
atp4615
Rp4616
F5533.012
tp4617
a(g1
((lp4618
I81922
aI2114829
atp4619
Rp4620
F5542.152
tp4621
a(g1
((lp4622
I81922
aI139523
atp4623
Rp4624
F5542.58
tp4625
a(g1
((lp4626
I81922
aI279045
atp4627
Rp4628
F5548.512
tp4629
a(g1
((lp4630
I98306
aI147715
atp4631
Rp4632
F5549.328
tp4633
a(g1
((lp4634
I69634
aI270853
atp4635
Rp4636
F5559.276
tp4637
a(g1
((lp4638
I164099
aI67115551
atp4639
Rp4640
F5560.792
tp4641
a(g1
((lp4642
I73730
aI295429
atp4643
Rp4644
F5564.972
tp4645
a(g1
((lp4646
I98306
aI2102541
atp4647
Rp4648
F5580.232
tp4649
a(g1
((lp4650
I69634
aI2131213
atp4651
Rp4652
F5586.76
tp4653
a(g1
((lp4654
I69634
aI164099
atp4655
Rp4656
F5587.1
tp4657
a(g1
((lp4658
I164099
aI266757
atp4659
Rp4660
F5591.704
tp4661
a(g1
((lp4662
I73730
aI164099
atp4663
Rp4664
F5597.628
tp4665
a(g1
((lp4666
I98306
aI139523
atp4667
Rp4668
F5598.088
tp4669
a(g1
((lp4670
I139523
aI279045
atp4671
Rp4672
F5615.128
tp4673
a(g1
((lp4674
I164099
aI279045
atp4675
Rp4676
F5627.068
tp4677
a(g1
((lp4678
I98306
aI135427
atp4679
Rp4680
F5636.904
tp4681
a(g1
((lp4682
I135427
aI270853
atp4683
Rp4684
F5651.38
tp4685
a(g1
((lp4686
I69634
aI139523
atp4687
Rp4688
F5653.908
tp4689
a(g1
((lp4690
I73730
aI135427
atp4691
Rp4692
F5667.928
tp4693
a(g1
((lp4694
I81922
aI164099
atp4695
Rp4696
F5695.296
tp4697
a(g1
((lp4698
I81922
aI147715
atp4699
Rp4700
F5708.256
tp4701
a(g1
((lp4702
I73730
aI147715
atp4703
Rp4704
F5746.028
tp4705
a.