(VPlayer ##t
p0
I995
I990
(lp1
I16783383
aI134253349
a(lp2
I134236965
aI529159
aI15
I5
(lp3
(lp4
I16783383
aI134253349
aI134236965
aI529159
aI16795671
aI33573149
aI134228773
aI67115551
aI67127839
aI73730
aI1057803
aI16812055
aI1065995
aI2106637
aI98306
aI4199953
aI164099
aI16787479
aI8398611
aI147715
aI1082379
aI8394515
aI268454953
aI134224677
aI33589533
aI268446761
aI4228625
aI33564957
aI533255
aI270853
aI2102541
aI2114829
aI295429
aI268442665
aI557831
aI4212241
aI67119647
aI33560861
aI4204049
aI266757
aI8406803
aI81922
aI279045
aI69634
aI139523
aI8423187
aI135427
aI67144223
aI268471337
aI2131213
aI541447
aI1053707
aI1
I1
I0
I1
(lp5
VPlayer ##t posts 5. (Dealer)
p6
aS'Kassandra posts 10.'
p7
a(lp8
(S'blind'
p9
I10
I0
tp10
a(lp11
(g9
I5
I0
tp12
aI1
tp13
.