(VPlayer \u03c0Dr
p0
I995
I990
(lp1
I268471337
aI533255
a(lp2
I134253349
aI16795671
aI15
I5
(lp3
(lp4
I268471337
aI533255
aI134253349
aI16795671
aI8394515
aI33573149
aI268454953
aI1057803
aI33560861
aI164099
aI2106637
aI8423187
aI147715
aI134228773
aI2131213
aI541447
aI2114829
aI4212241
aI1065995
aI98306
aI1082379
aI1053707
aI2102541
aI529159
aI67127839
aI268446761
aI16783383
aI33564957
aI295429
aI73730
aI557831
aI67144223
aI16787479
aI4199953
aI134236965
aI4204049
aI135427
aI8406803
aI139523
aI279045
aI33589533
aI8398611
aI67119647
aI134224677
aI67115551
aI81922
aI69634
aI270853
aI268442665
aI16812055
aI266757
aI4228625
aI1
I1
I0
I1
(lp5
VPlayer \u03c0Dr posts 5. (Dealer)
p6
aS'Kassandra posts 10.'
p7
a(lp8
(S'blind'
p9
I10
I0
tp10
a(lp11
(g9
I5
I0
tp12
aI1
tp13
.