(VPlayer Y##
p0
I995
I990
(lp1
I135427
aI16787479
a(lp2
I67127839
aI139523
aI15
I5
(lp3
(lp4
I135427
aI16787479
aI67127839
aI139523
aI8406803
aI266757
aI1065995
aI69634
aI134236965
aI67115551
aI164099
aI268471337
aI295429
aI2106637
aI1082379
aI134253349
aI2131213
aI541447
aI81922
aI4199953
aI8398611
aI4228625
aI1053707
aI134224677
aI73730
aI268446761
aI4204049
aI67144223
aI16812055
aI147715
aI98306
aI270853
aI16795671
aI33560861
aI2114829
aI529159
aI8394515
aI268454953
aI33564957
aI557831
aI134228773
aI533255
aI268442665
aI4212241
aI16783383
aI33573149
aI33589533
aI8423187
aI1057803
aI279045
aI2102541
aI67119647
aI1
I1
I0
I1
(lp5
VPlayer Y## posts 5. (Dealer)
p6
aS'Kassandra posts 10.'
p7
a(lp8
(S'blind'
p9
I10
I0
tp10
a(lp11
(g9
I5
I0
tp12
aI1
tp13
.