(VPlayer rmH
p0
I995
I990
(lp1
I268446761
aI4212241
a(lp2
I541447
aI8406803
aI15
I5
(lp3
(lp4
I268446761
aI4212241
aI541447
aI8406803
aI33589533
aI1053707
aI33573149
aI557831
aI81922
aI134224677
aI268442665
aI73730
aI1082379
aI4204049
aI8394515
aI33560861
aI134236965
aI268454953
aI16812055
aI295429
aI67127839
aI8398611
aI16787479
aI98306
aI1065995
aI2114829
aI147715
aI533255
aI4199953
aI135427
aI279045
aI164099
aI2102541
aI2106637
aI139523
aI16795671
aI268471337
aI134228773
aI16783383
aI69634
aI4228625
aI33564957
aI67144223
aI270853
aI67119647
aI529159
aI134253349
aI8423187
aI266757
aI2131213
aI1057803
aI67115551
aI1
I1
I0
I1
(lp5
VPlayer rmH posts 5. (Dealer)
p6
aS'Kassandra posts 10.'
p7
a(lp8
(S'blind'
p9
I10
I0
tp10
a(lp11
(g9
I5
I0
tp12
aI1
tp13
.