(VPlayer p\u03a9V
p0
I995
I990
(lp1
I33589533
aI8398611
a(lp2
I4199953
aI541447
aI15
I5
(lp3
(lp4
I33589533
aI8398611
aI4199953
aI541447
aI33564957
aI529159
aI16795671
aI16812055
aI2131213
aI268442665
aI33573149
aI69634
aI4204049
aI266757
aI295429
aI33560861
aI533255
aI1065995
aI4228625
aI268471337
aI4212241
aI135427
aI134224677
aI8406803
aI139523
aI67115551
aI81922
aI67127839
aI98306
aI2114829
aI16787479
aI164099
aI1053707
aI2102541
aI268446761
aI557831
aI16783383
aI8394515
aI134236965
aI147715
aI134253349
aI67119647
aI270853
aI279045
aI134228773
aI1082379
aI8423187
aI67144223
aI73730
aI1057803
aI2106637
aI268454953
aI1
I1
I0
I1
(lp5
VPlayer p\u03a9V posts 5. (Dealer)
p6
aS'Kassandra posts 10.'
p7
a(lp8
(S'blind'
p9
I10
I0
tp10
a(lp11
(g9
I5
I0
tp12
aI1
tp13
.