(VPlayer gch
p0
I850
I567
(lp1
I33589533
aI8398611
a(lp2
I16812055
aI2114829
aI583
I283
(lp3
I295429
aI8423187
aI4228625
aI134228773
aI164099
a(lp4
I33589533
aI8398611
aI16812055
aI2114829
aI295429
aI8423187
aI4228625
aI134228773
aI164099
aI147715
aI270853
aI4199953
aI139523
aI134224677
aI73730
aI134253349
aI67127839
aI33564957
aI266757
aI8394515
aI69634
aI16787479
aI4204049
aI8406803
aI557831
aI2106637
aI2102541
aI279045
aI16795671
aI98306
aI81922
aI67144223
aI541447
aI529159
aI268454953
aI67119647
aI268471337
aI533255
aI67115551
aI268442665
aI1082379
aI2131213
aI134236965
aI1065995
aI33560861
aI4212241
aI33573149
aI135427
aI1057803
aI268446761
aI16783383
aI1053707
aI1
I1
I1
I4
(lp5
VPlayer gch posts 5. (Dealer)
p6
aS'Kassandra posts 10.'
p7
aVPlayer gch raises to 40.
p8
aS'Kassandra calls 40.'
p9
aS'see FLOP'
p10
aS'Kassandra bets 80.'
p11
aVPlayer gch calls 80.
p12
aS'see TURN'
p13
aS'Kassandra checks.'
p14
aVPlayer gch bets 30.
p15
aS'Kassandra calls 30.'
p16
aS'see RIVER'
p17
aS'Kassandra bets 283.'
p18
a(lp19
(S'blind'
p20
I10
I0
tp21
a(S'call'
p22
I30
I0
tp23
a(S'bet'
p24
I80
I3
tp25
a(S'check'
p26
I0
I4
tp27
a(S'call'
p28
I30
I4
tp29
a(S'bet'
p30
I283
I5
tp31
a(lp32
(g20
I5
I0
tp33
a(g22
I5
I0
tp34
a(g24
I30
I0
tp35
a(S'call'
p36
I80
I3
tp37
a(g30
I30
I4
tp38
aI1
tp39
.