(Va
p0
F1015.0
I970
(lp1
I67127839
aI270853
a(lp2
I33564957
aI266757
aI15
I5
(lp3
(lp4
I67127839
aI270853
aI33564957
aI266757
aI33560861
aI4199953
aI2106637
aI8398611
aI67144223
aI135427
aI16812055
aI4228625
aI2131213
aI1082379
aI268471337
aI268454953
aI8423187
aI134228773
aI533255
aI73730
aI67119647
aI134236965
aI16783383
aI134224677
aI164099
aI67115551
aI529159
aI98306
aI4204049
aI279045
aI1057803
aI69634
aI268442665
aI268446761
aI134253349
aI147715
aI139523
aI16795671
aI541447
aI81922
aI2114829
aI557831
aI4212241
aI33573149
aI33589533
aI8394515
aI1053707
aI295429
aI16787479
aI2102541
aI8406803
aI1065995
aI1
I1
I0
I1
(lp5
Va posts 5. (Dealer)
p6
aS'Kassandra posts 10.'
p7
a(lp8
(S'blind'
p9
I10
I0
tp10
a(lp11
(g9
I5
I0
tp12
aI3
tp13
.