(VPlayer ZsZ
p0
I995
I990
(lp1
I147715
aI266757
a(lp2
I1082379
aI533255
aI15
I5
(lp3
(lp4
I147715
aI266757
aI1082379
aI533255
aI8394515
aI4204049
aI135427
aI134236965
aI1053707
aI8423187
aI2106637
aI557831
aI69634
aI16812055
aI270853
aI33573149
aI134253349
aI8398611
aI2102541
aI4228625
aI268442665
aI33564957
aI16795671
aI164099
aI295429
aI279045
aI67119647
aI2114829
aI268446761
aI4199953
aI73730
aI67115551
aI134224677
aI541447
aI98306
aI67127839
aI81922
aI268454953
aI16783383
aI33589533
aI529159
aI33560861
aI4212241
aI2131213
aI268471337
aI139523
aI16787479
aI8406803
aI1057803
aI134228773
aI1065995
aI67144223
aI1
I1
I0
I1
(lp5
VPlayer ZsZ posts 5. (Dealer)
p6
aS'Kassandra posts 10.'
p7
a(lp8
(S'blind'
p9
I10
I0
tp10
a(lp11
(g9
I5
I0
tp12
aI1
tp13
.