(VPlayer FZ!
p0
I995
I990
(lp1
I541447
aI533255
a(lp2
I135427
aI2102541
aI15
I5
(lp3
(lp4
I541447
aI533255
aI135427
aI2102541
aI268471337
aI69634
aI1065995
aI67119647
aI268446761
aI1053707
aI8406803
aI4204049
aI8423187
aI16795671
aI8394515
aI81922
aI268454953
aI8398611
aI134236965
aI33560861
aI270853
aI33589533
aI4228625
aI73730
aI164099
aI557831
aI266757
aI147715
aI279045
aI16787479
aI134228773
aI2106637
aI2131213
aI2114829
aI4199953
aI67127839
aI295429
aI268442665
aI529159
aI33564957
aI16812055
aI67144223
aI139523
aI33573149
aI4212241
aI134253349
aI134224677
aI16783383
aI1057803
aI67115551
aI1082379
aI98306
aI1
I1
I0
I1
(lp5
VPlayer FZ! posts 5. (Dealer)
p6
aS'Kassandra posts 10.'
p7
a(lp8
(S'blind'
p9
I10
I0
tp10
a(lp11
(g9
I5
I0
tp12
aI1
tp13
.