(VPlayer vCs
p0
I995
I990
(lp1
I541447
aI98306
a(lp2
I268442665
aI1065995
aI15
I5
(lp3
(lp4
I541447
aI98306
aI268442665
aI1065995
aI16795671
aI16787479
aI67144223
aI270853
aI16812055
aI8398611
aI4228625
aI2131213
aI139523
aI67115551
aI67119647
aI81922
aI533255
aI4199953
aI134236965
aI266757
aI279045
aI295429
aI529159
aI268471337
aI33564957
aI8423187
aI134224677
aI67127839
aI73730
aI557831
aI69634
aI268446761
aI135427
aI33589533
aI164099
aI2114829
aI2106637
aI4204049
aI4212241
aI1082379
aI268454953
aI1053707
aI2102541
aI33573149
aI1057803
aI16783383
aI33560861
aI8406803
aI8394515
aI134228773
aI147715
aI134253349
aI1
I1
I0
I1
(lp5
VPlayer vCs posts 5. (Dealer)
p6
aS'Kassandra posts 10.'
p7
a(lp8
(S'blind'
p9
I10
I0
tp10
a(lp11
(g9
I5
I0
tp12
aI1
tp13
.