(VPlayer Jg$
p0
I995
I990
(lp1
I134224677
aI134236965
a(lp2
I2114829
aI8406803
aI15
I5
(lp3
(lp4
I134224677
aI134236965
aI2114829
aI8406803
aI135427
aI2106637
aI164099
aI67144223
aI16787479
aI4228625
aI33573149
aI1053707
aI4199953
aI147715
aI270853
aI8394515
aI279045
aI67127839
aI557831
aI8423187
aI134253349
aI268446761
aI1082379
aI134228773
aI67115551
aI4212241
aI67119647
aI541447
aI1065995
aI33564957
aI98306
aI73730
aI81922
aI268471337
aI2131213
aI268454953
aI295429
aI529159
aI33560861
aI4204049
aI268442665
aI266757
aI16783383
aI1057803
aI2102541
aI16812055
aI33589533
aI16795671
aI8398611
aI533255
aI69634
aI139523
aI1
I1
I0
I1
(lp5
VPlayer Jg$ posts 5. (Dealer)
p6
aS'Kassandra posts 10.'
p7
a(lp8
(S'blind'
p9
I10
I0
tp10
a(lp11
(g9
I5
I0
tp12
aI1
tp13
.