(VPlayer #sD
p0
I960
I960
(lp1
I557831
aI16812055
a(lp2
I533255
aI134236965
aI80
I0
(lp3
I266757
aI135427
aI98306
aI8406803
a(lp4
I557831
aI16812055
aI533255
aI134236965
aI266757
aI135427
aI98306
aI8406803
aI2114829
aI16795671
aI67119647
aI2102541
aI279045
aI8398611
aI2131213
aI4199953
aI33573149
aI8423187
aI16787479
aI134253349
aI147715
aI2106637
aI4212241
aI268454953
aI8394515
aI268471337
aI4228625
aI164099
aI69634
aI1053707
aI67144223
aI67115551
aI1057803
aI16783383
aI67127839
aI134224677
aI295429
aI139523
aI1065995
aI1082379
aI268442665
aI529159
aI73730
aI33589533
aI270853
aI541447
aI4204049
aI33564957
aI33560861
aI134228773
aI81922
aI268446761
aI1
I1
I1
I3
(lp5
VPlayer #sD posts 5. (Dealer)
p6
aS'Kassandra posts 10.'
p7
aVPlayer #sD calls 10.
p8
aS'Kassandra raises to 40.'
p9
aVPlayer #sD calls 40.
p10
aS'see FLOP'
p11
aS'Kassandra checks.'
p12
aVPlayer #sD checks.
p13
aS'see TURN'
p14
aS'Kassandra checks.'
p15
a(lp16
(S'blind'
p17
I10
I0
tp18
a(S'bet'
p19
I30
I0
tp20
a(S'check'
p21
I0
I3
tp22
a(S'check'
p23
I0
I4
tp24
a(lp25
(g17
I5
I0
tp26
a(S'call'
p27
I5
I0
tp28
a(S'call'
p29
I30
I0
tp30
a(g23
I0
I3
tp31
aI1
tp32
.