(VPlayer g!$
p0
I435
I1550
(lp1
I529159
aI16795671
a(lp2
I73730
aI268446761
aI15
I5
(lp3
(lp4
I529159
aI16795671
aI73730
aI268446761
aI1053707
aI266757
aI2102541
aI134253349
aI67127839
aI8394515
aI2114829
aI134228773
aI16812055
aI268454953
aI33573149
aI4212241
aI16787479
aI67119647
aI8423187
aI268442665
aI69634
aI541447
aI1065995
aI1057803
aI2131213
aI33564957
aI4199953
aI4204049
aI533255
aI1082379
aI295429
aI33589533
aI164099
aI135427
aI67144223
aI134224677
aI98306
aI8398611
aI268471337
aI16783383
aI139523
aI134236965
aI8406803
aI147715
aI2106637
aI270853
aI81922
aI4228625
aI557831
aI67115551
aI33560861
aI279045
aI1
I1
I0
I1
(lp5
VPlayer g!$ posts 5. (Dealer)
p6
aS'Kassandra posts 10.'
p7
a(lp8
(S'blind'
p9
I10
I0
tp10
a(lp11
(g9
I5
I0
tp12
aI5
tp13
.