(VPlayer \u2206P$
p0
I995
I990
(lp1
I134253349
aI8406803
a(lp2
I33589533
aI1053707
aI15
I5
(lp3
(lp4
I134253349
aI8406803
aI33589533
aI1053707
aI164099
aI67144223
aI8423187
aI67127839
aI134236965
aI529159
aI8394515
aI33573149
aI1057803
aI73730
aI8398611
aI4204049
aI139523
aI4212241
aI541447
aI33560861
aI147715
aI557831
aI2102541
aI279045
aI98306
aI33564957
aI67119647
aI69634
aI1065995
aI134228773
aI134224677
aI4228625
aI16787479
aI270853
aI2131213
aI2106637
aI81922
aI295429
aI1082379
aI4199953
aI268471337
aI268446761
aI16812055
aI533255
aI2114829
aI67115551
aI16783383
aI135427
aI16795671
aI268442665
aI268454953
aI266757
aI1
I1
I0
I1
(lp5
VPlayer \u2206P$ posts 5. (Dealer)
p6
aS'Kassandra posts 10.'
p7
a(lp8
(S'blind'
p9
I10
I0
tp10
a(lp11
(g9
I5
I0
tp12
aI1
tp13
.