(VPlayer Ln\u03a9
p0
I1050
I910
(lp1
I134224677
aI16795671
a(lp2
I279045
aI270853
aI40
I20
(lp3
(lp4
I134224677
aI16795671
aI279045
aI270853
aI16783383
aI266757
aI67144223
aI1057803
aI67115551
aI33573149
aI268454953
aI16787479
aI134236965
aI147715
aI98306
aI2106637
aI4204049
aI268446761
aI4199953
aI134228773
aI134253349
aI2102541
aI69634
aI73730
aI33564957
aI268442665
aI529159
aI1082379
aI2131213
aI8423187
aI67119647
aI533255
aI16812055
aI541447
aI135427
aI33589533
aI8406803
aI268471337
aI33560861
aI1053707
aI2114829
aI295429
aI557831
aI139523
aI8394515
aI67127839
aI81922
aI4228625
aI4212241
aI164099
aI8398611
aI1065995
aI2
I1
I1
I1
(lp5
S'Kassandra posts 5. (Dealer)'
p6
aVPlayer Ln\u03a9 posts 10.
p7
aS'Kassandra raises to 30.'
p8
a(lp9
(S'blind'
p10
I5
I0
tp11
a(S'call'
p12
I5
I0
tp13
a(S'bet'
p14
I20
I0
tp15
a(lp16
(g10
I10
I0
tp17
aI2
tp18
.