(VPlayer FMF
p0
I1225
I760
(lp1
I16783383
aI270853
a(lp2
I295429
aI33560861
aI15
I5
(lp3
(lp4
I16783383
aI270853
aI295429
aI33560861
aI16812055
aI16787479
aI4204049
aI69634
aI73730
aI67115551
aI135427
aI67127839
aI164099
aI8423187
aI268442665
aI8398611
aI147715
aI16795671
aI268446761
aI1057803
aI67119647
aI2114829
aI134236965
aI529159
aI2102541
aI8394515
aI279045
aI1082379
aI33589533
aI1053707
aI4199953
aI4228625
aI81922
aI139523
aI268471337
aI541447
aI134228773
aI8406803
aI2106637
aI1065995
aI33564957
aI268454953
aI533255
aI557831
aI134224677
aI4212241
aI33573149
aI2131213
aI134253349
aI98306
aI67144223
aI266757
aI1
I1
I0
I1
(lp5
VPlayer FMF posts 5. (Dealer)
p6
aS'Kassandra posts 10.'
p7
a(lp8
(S'blind'
p9
I10
I0
tp10
a(lp11
(g9
I5
I0
tp12
aI5
tp13
.