(VPlayer H\u2211C
p0
I995
I990
(lp1
I16783383
aI33560861
a(lp2
I279045
aI270853
aI15
I5
(lp3
(lp4
I16783383
aI33560861
aI279045
aI270853
aI1082379
aI164099
aI134253349
aI533255
aI67119647
aI73730
aI139523
aI2102541
aI33589533
aI33564957
aI4212241
aI134236965
aI1057803
aI81922
aI2114829
aI134224677
aI4199953
aI4204049
aI268471337
aI541447
aI16787479
aI134228773
aI8406803
aI67127839
aI98306
aI268446761
aI16812055
aI2106637
aI67144223
aI1053707
aI67115551
aI8423187
aI1065995
aI529159
aI147715
aI8394515
aI69634
aI266757
aI8398611
aI33573149
aI135427
aI4228625
aI268454953
aI557831
aI268442665
aI16795671
aI295429
aI2131213
aI1
I1
I0
I1
(lp5
VPlayer H\u2211C posts 5. (Dealer)
p6
aS'Kassandra posts 10.'
p7
a(lp8
(S'blind'
p9
I10
I0
tp10
a(lp11
(g9
I5
I0
tp12
aI1
tp13
.