(VPlayer Nlq
p0
I995
I990
(lp1
I541447
aI557831
a(lp2
I147715
aI268442665
aI15
I5
(lp3
(lp4
I541447
aI557831
aI147715
aI268442665
aI134224677
aI279045
aI8398611
aI139523
aI16795671
aI268471337
aI135427
aI533255
aI4228625
aI33560861
aI1053707
aI1065995
aI8423187
aI529159
aI2131213
aI2102541
aI67115551
aI4212241
aI164099
aI98306
aI8394515
aI268446761
aI4204049
aI268454953
aI33589533
aI270853
aI4199953
aI33564957
aI2114829
aI266757
aI8406803
aI67127839
aI33573149
aI134228773
aI16812055
aI1082379
aI1057803
aI16787479
aI134253349
aI73730
aI2106637
aI16783383
aI67144223
aI134236965
aI69634
aI67119647
aI81922
aI295429
aI1
I1
I0
I1
(lp5
VPlayer Nlq posts 5. (Dealer)
p6
aS'Kassandra posts 10.'
p7
a(lp8
(S'blind'
p9
I10
I0
tp10
a(lp11
(g9
I5
I0
tp12
aI1
tp13
.