(VPlayer Ypm
p0
I995
I990
(lp1
I8398611
aI279045
a(lp2
I134228773
aI4228625
aI15
I5
(lp3
(lp4
I8398611
aI279045
aI134228773
aI4228625
aI295429
aI16783383
aI73730
aI67127839
aI16787479
aI33560861
aI529159
aI69634
aI268454953
aI33573149
aI4212241
aI1057803
aI2102541
aI16795671
aI2106637
aI4204049
aI16812055
aI270853
aI1065995
aI98306
aI268446761
aI67144223
aI2114829
aI8423187
aI134236965
aI8406803
aI134224677
aI81922
aI135427
aI164099
aI268442665
aI557831
aI33589533
aI67119647
aI1053707
aI1082379
aI8394515
aI4199953
aI67115551
aI33564957
aI139523
aI2131213
aI268471337
aI533255
aI147715
aI266757
aI134253349
aI541447
aI1
I1
I0
I1
(lp5
VPlayer Ypm posts 5. (Dealer)
p6
aS'Kassandra posts 10.'
p7
a(lp8
(S'blind'
p9
I10
I0
tp10
a(lp11
(g9
I5
I0
tp12
aI1
tp13
.