(VPlayer h$T
p0
I995
I990
(lp1
I164099
aI268442665
a(lp2
I134228773
aI135427
aI15
I5
(lp3
(lp4
I164099
aI268442665
aI134228773
aI135427
aI295429
aI541447
aI67127839
aI2102541
aI529159
aI270853
aI8406803
aI1065995
aI81922
aI73730
aI33589533
aI1057803
aI147715
aI139523
aI67119647
aI134224677
aI279045
aI16787479
aI8398611
aI134253349
aI16795671
aI98306
aI67115551
aI4204049
aI33564957
aI1053707
aI1082379
aI8394515
aI2114829
aI4199953
aI2106637
aI33573149
aI2131213
aI16783383
aI268454953
aI268471337
aI67144223
aI533255
aI268446761
aI8423187
aI557831
aI266757
aI4212241
aI16812055
aI4228625
aI134236965
aI33560861
aI69634
aI1
I1
I0
I1
(lp5
VPlayer h$T posts 5. (Dealer)
p6
aS'Kassandra posts 10.'
p7
a(lp8
(S'blind'
p9
I10
I0
tp10
a(lp11
(g9
I5
I0
tp12
aI1
tp13
.