(dp1
c__builtin__
frozenset
p2
((lp3
I1057803
aI67115551
atRp4
I137
sg2
((lp5
I4199953
aI1057803
atRp6
I126
sg2
((lp7
I134228773
aI33560861
atRp8
I31
sg2
((lp9
I33589533
aI134253349
atRp10
I9
sg2
((lp11
I268454953
aI270853
atRp12
I104
sg2
((lp13
I81922
aI1065995
atRp14
I110
sg2
((lp15
I2114829
aI16783383
atRp16
I124
sg2
((lp17
I98306
aI33589533
atRp18
I89
sg2
((lp19
I8398611
aI8406803
atRp20
I17
sg2
((lp21
I1053707
aI33573149
atRp22
I147
sg2
((lp23
I8423187
aI135427
atRp24
I165
sg2
((lp25
I16787479
aI533255
atRp26
I93
sg2
((lp27
I4204049
aI266757
atRp28
I156
sg2
((lp29
I8398611
aI33564957
atRp30
I26
sg2
((lp31
I33564957
aI33560861
atRp32
I5
sg2
((lp33
I16787479
aI557831
atRp34
I157
sg2
((lp35
I69634
aI8423187
atRp36
I166
sg2
((lp37
I81922
aI295429
atRp38
I154
sg2
((lp39
I16795671
aI67119647
atRp40
I49
sg2
((lp41
I1057803
aI2102541
atRp42
I121
sg2
((lp43
I134228773
aI295429
atRp44
I132
sg2
((lp45
I134253349
aI16787479
atRp46
I45
sg2
((lp47
I98306
aI16783383
atRp48
I162
sg2
((lp49
I268446761
aI33560861
atRp50
I27
sg2
((lp51
I266757
aI33573149
atRp52
I152
sg2
((lp53
I268454953
aI134253349
atRp54
I11
sg2
((lp55
I4212241
aI16812055
atRp56
I100
sg2
((lp57
I1065995
aI67144223
atRp58
I137
sg2
((lp59
I266757
aI16787479
atRp60
I158
sg2
((lp61
I8398611
aI8423187
atRp62
I17
sg2
((lp63
I164099
aI16795671
atRp64
I160
sg2
((lp65
I134236965
aI295429
atRp66
I132
sg2
((lp67
I33573149
aI67144223
atRp68
I35
sg2
((lp69
I134253349
aI67127839
atRp70
I20
sg2
((lp71
I1053707
aI67144223
atRp72
I137
sg2
((lp73
I98306
aI134224677
atRp74
I135
sg2
((lp75
I73730
aI557831
atRp76
I151
sg2
((lp77
I1057803
aI33564957
atRp78
I79
sg2
((lp79
I135427
aI529159
atRp80
I77
sg2
((lp81
I8423187
aI139523
atRp82
I165
sg2
((lp83
I98306
aI33573149
atRp84
I155
sg2
((lp85
I33573149
aI533255
atRp86
I149
sg2
((lp87
I270853
aI529159
atRp88
I127
sg2
((lp89
I268454953
aI164099
atRp90
I109
sg2
((lp91
I4228625
aI16787479
atRp92
I100
sg2
((lp93
I4199953
aI270853
atRp94
I156
sg2
((lp95
I268446761
aI67127839
atRp96
I18
sg2
((lp97
I8423187
aI279045
atRp98
I164
sg2
((lp99
I4228625
aI16783383
atRp100
I100
sg2
((lp101
I33573149
aI67127839
atRp102
I13
sg2
((lp103
I1065995
aI8394515
atRp104
I134
sg2
((lp105
I4228625
aI16812055
atRp106
I38
sg2
((lp107
I279045
aI533255
atRp108
I127
sg2
((lp109
I4228625
aI67144223
atRp110
I43
sg2
((lp111
I98306
aI134253349
atRp112
I59
sg2
((lp113
I1082379
aI1065995
atRp114
I36
sg2
((lp115
I98306
aI16787479
atRp116
I162
sg2
((lp117
I8423187
aI33560861
atRp118
I80
sg2
((lp119
I33573149
aI295429
atRp120
I152
sg2
((lp121
I2131213
aI134253349
atRp122
I44
sg2
((lp123
I4199953
aI1053707
atRp124
I62
sg2
((lp125
I2131213
aI16812055
atRp126
I57
sg2
((lp127
I81922
aI147715
atRp128
I105
sg2
((lp129
I4212241
aI2106637
atRp130
I114
sg2
((lp131
I4212241
aI533255
atRp132
I139
sg2
((lp133
I268471337
aI135427
atRp134
I109
sg2
((lp135
I2131213
aI67144223
atRp136
I61
sg2
((lp137
I2102541
aI33573149
atRp138
I129
sg2
((lp139
I73730
aI1065995
atRp140
I163
sg2
((lp141
I73730
aI2131213
atRp142
I169
sg2
((lp143
I4204049
aI134224677
atRp144
I112
sg2
((lp145
I2131213
aI533255
atRp146
I130
sg2
((lp147
I4212241
aI33573149
atRp148
I41
sg2
((lp149
I4228625
aI8394515
atRp150
I99
sg2
((lp151
I4212241
aI139523
atRp152
I167
sg2
((lp153
I134236965
aI33573149
atRp154
I9
sg2
((lp155
I1065995
aI164099
atRp156
I148
sg2
((lp157
I8423187
aI33564957
atRp158
I80
sg2
((lp159
I4199953
aI67115551
atRp160
I43
sg2
((lp161
I33564957
aI134236965
atRp162
I31
sg2
((lp163
I2102541
aI134224677
atRp164
I44
sg2
((lp165
I33589533
aI2102541
atRp166
I129
sg2
((lp167
I16795671
aI16783383
atRp168
I10
sg2
((lp169
I1065995
aI1057803
atRp170
I36
sg2
((lp171
I8398611
aI2102541
atRp172
I119
sg2
((lp173
I268454953
aI147715
atRp174
I33
sg2
((lp175
I4204049
aI268454953
atRp176
I91
sg2
((lp177
I268446761
aI33564957
atRp178
I8
sg2
((lp179
I529159
aI16812055
atRp180
I157
sg2
((lp181
I81922
aI8423187
atRp182
I166
sg2
((lp183
I98306
aI69634
atRp184
I51
sg2
((lp185
I139523
aI134236965
atRp186
I133
sg2
((lp187
I268442665
aI67115551
atRp188
I6
sg2
((lp189
I33589533
aI67144223
atRp190
I13
sg2
((lp191
I73730
aI33573149
atRp192
I155
sg2
((lp193
I268454953
aI33573149
atRp194
I8
sg2
((lp195
I16783383
aI16812055
atRp196
I10
sg2
((lp197
I73730
aI16812055
atRp198
I162
sg2
((lp199
I279045
aI16787479
atRp200
I158
sg2
((lp201
I98306
aI134236965
atRp202
I135
sg2
((lp203
I268446761
aI134224677
atRp204
I11
sg2
((lp205
I1057803
aI139523
atRp206
I90
sg2
((lp207
I268442665
aI67127839
atRp208
I18
sg2
((lp209
I1065995
aI16812055
atRp210
I140
sg2
((lp211
I2106637
aI557831
atRp212
I130
sg2
((lp213
I2106637
aI67119647
atRp214
I61
sg2
((lp215
I73730
aI529159
atRp216
I151
sg2
((lp217
I266757
aI134253349
atRp218
I132
sg2
((lp219
I67119647
aI533255
atRp220
I69
sg2
((lp221
I134224677
aI67119647
atRp222
I20
sg2
((lp223
I134253349
aI16812055
atRp224
I14
sg2
((lp225
I4199953
aI266757
atRp226
I94
sg2
((lp227
I147715
aI270853
atRp228
I142
sg2
((lp229
I529159
aI533255
atRp230
I46
sg2
((lp231
I8394515
aI2102541
atRp232
I54
sg2
((lp233
I8398611
aI557831
atRp234
I150
sg2
((lp235
I268446761
aI541447
atRp236
I101
sg2
((lp237
I8394515
aI33560861
atRp238
I26
sg2
((lp239
I8423187
aI529159
atRp240
I150
sg2
((lp241
I1053707
aI266757
atRp242
I70
sg2
((lp243
I98306
aI147715
atRp244
I159
sg2
((lp245
I268442665
aI1082379
atRp246
I113
sg2
((lp247
I4212241
aI1053707
atRp248
I126
sg2
((lp249
I4204049
aI67127839
atRp250
I115
sg2
((lp251
I147715
aI164099
atRp252
I52
sg2
((lp253
I33589533
aI529159
atRp254
I149
sg2
((lp255
I268454953
aI67127839
atRp256
I6
sg2
((lp257
I98306
aI8394515
atRp258
I166
sg2
((lp259
I2114829
aI16812055
atRp260
I124
sg2
((lp261
I557831
aI67115551
atRp262
I141
sg2
((lp263
I139523
aI135427
atRp264
I52
sg2
((lp265
I268471337
aI33573149
atRp266
I27
sg2
((lp267
I134228773
aI67127839
atRp268
I20
sg2
((lp269
I8406803
aI16787479
atRp270
I73
sg2
((lp271
I4212241
aI16783383
atRp272
I100
sg2
((lp273
I8398611
aI67119647
atRp274
I25
sg2
((lp275
I557831
aI529159
atRp276
I46
sg2
((lp277
I1053707
aI533255
atRp278
I123
sg2
((lp279
I81922
aI135427
atRp280
I159
sg2
((lp281
I147715
aI16783383
atRp282
I160
sg2
((lp283
I1065995
aI134253349
atRp284
I125
sg2
((lp285
I8423187
aI67127839
atRp286
I83
sg2
((lp287
I268454953
aI2106637
atRp288
I102
sg2
((lp289
I8406803
aI2102541
atRp290
I119
sg2
((lp291
I4204049
aI81922
atRp292
I168
sg2
((lp293
I73730
aI8406803
atRp294
I166
sg2
((lp295
I1082379
aI16787479
atRp296
I140
sg2
((lp297
I8423187
aI533255
atRp298
I150
sg2
((lp299
I268471337
aI134228773
atRp300
I11
sg2
((lp301
I8423187
aI541447
atRp302
I150
sg2
((lp303
I1053707
aI33560861
atRp304
I79
sg2
((lp305
I1053707
aI134236965
atRp306
I125
sg2
((lp307
I270853
aI67144223
atRp308
I143
sg2
((lp309
I1082379
aI295429
atRp310
I70
sg2
((lp311
I4212241
aI134228773
atRp312
I112
sg2
((lp313
I4199953
aI4204049
atRp314
I21
sg2
((lp315
I98306
aI67144223
atRp316
I75
sg2
((lp317
I268446761
aI1057803
atRp318
I34
sg2
((lp319
I98306
aI67119647
atRp320
I146
sg2
((lp321
I134224677
aI529159
atRp322
I55
sg2
((lp323
I1057803
aI295429
atRp324
I136
sg2
((lp325
I4199953
aI1082379
atRp326
I126
sg2
((lp327
I4212241
aI2131213
atRp328
I114
sg2
((lp329
I1082379
aI164099
atRp330
I90
sg2
((lp331
I268442665
aI266757
atRp332
I32
sg2
((lp333
I268471337
aI81922
atRp334
I117
sg2
((lp335
I8406803
aI134228773
atRp336
I81
sg2
((lp337
I268446761
aI8394515
atRp338
I76
sg2
((lp339
I1082379
aI67119647
atRp340
I137
sg2
((lp341
I268471337
aI33589533
atRp342
I8
sg2
((lp343
I268454953
aI16787479
atRp344
I42
sg2
((lp345
I33573149
aI33560861
atRp346
I5
sg2
((lp347
I8394515
aI533255
atRp348
I150
sg2
((lp349
I4228625
aI266757
atRp350
I156
sg2
((lp351
I8423187
aI8406803
atRp352
I17
sg2
((lp353
I270853
aI67115551
atRp354
I143
sg2
((lp355
I16795671
aI557831
atRp356
I157
sg2
((lp357
I69634
aI8398611
atRp358
I166
sg2
((lp359
I81922
aI270853
atRp360
I154
sg2
((lp361
I16787479
aI67119647
atRp362
I15
sg2
((lp363
I295429
aI279045
atRp364
I50
sg2
((lp365
I529159
aI67127839
atRp366
I141
sg2
((lp367
I295429
aI16787479
atRp368
I158
sg2
((lp369
I134228773
aI16787479
atRp370
I14
sg2
((lp371
I73730
aI16783383
atRp372
I162
sg2
((lp373
I266757
aI16795671
atRp374
I158
sg2
((lp375
I4228625
aI164099
atRp376
I116
sg2
((lp377
I268454953
aI134228773
atRp378
I11
sg2
((lp379
I139523
aI33589533
atRp380
I153
sg2
((lp381
I147715
aI16787479
atRp382
I160
sg2
((lp383
I268454953
aI279045
atRp384
I32
sg2
((lp385
I268471337
aI8398611
atRp386
I76
sg2
((lp387
I4199953
aI164099
atRp388
I167
sg2
((lp389
I268471337
aI67127839
atRp390
I18
sg2
((lp391
I134236965
aI67119647
atRp392
I20
sg2
((lp393
I4212241
aI268442665
atRp394
I91
sg2
((lp395
I81922
aI98306
atRp396
I51
sg2
((lp397
I69634
aI134228773
atRp398
I135
sg2
((lp399
I268442665
aI67144223
atRp400
I18
sg2
((lp401
I1082379
aI533255
atRp402
I123
sg2
((lp403
I139523
aI557831
atRp404
I138
sg2
((lp405
I98306
aI266757
atRp406
I154
sg2
((lp407
I1082379
aI2131213
atRp408
I56
sg2
((lp409
I266757
aI557831
atRp410
I127
sg2
((lp411
I69634
aI33564957
atRp412
I155
sg2
((lp413
I4228625
aI16795671
atRp414
I100
sg2
((lp415
I1053707
aI16783383
atRp416
I74
sg2
((lp417
I164099
aI8406803
atRp418
I165
sg2
((lp419
I8398611
aI279045
atRp420
I164
sg2
((lp421
I33560861
aI529159
atRp422
I82
sg2
((lp423
I33564957
aI67144223
atRp424
I35
sg2
((lp425
I135427
aI2114829
atRp426
I161
sg2
((lp427
I1082379
aI8394515
atRp428
I134
sg2
((lp429
I4204049
aI16783383
atRp430
I100
sg2
((lp431
I1082379
aI279045
atRp432
I136
sg2
((lp433
I8406803
aI529159
atRp434
I150
sg2
((lp435
I1057803
aI279045
atRp436
I136
sg2
((lp437
I268446761
aI33573149
atRp438
I27
sg2
((lp439
I8394515
aI16795671
atRp440
I73
sg2
((lp441
I1053707
aI270853
atRp442
I136
sg2
((lp443
I134236965
aI16783383
atRp444
I45
sg2
((lp445
I98306
aI557831
atRp446
I92
sg2
((lp447
I8406803
aI67127839
atRp448
I25
sg2
((lp449
I270853
aI279045
atRp450
I50
sg2
((lp451
I147715
aI16812055
atRp452
I160
sg2
((lp453
I4212241
aI268446761
atRp454
I91
sg2
((lp455
I1082379
aI8423187
atRp456
I68
sg2
((lp457
I270853
aI2102541
atRp458
I145
sg2
((lp459
I1057803
aI541447
atRp460
I123
sg2
((lp461
I4199953
aI8406803
atRp462
I99
sg2
((lp463
I2106637
aI67144223
atRp464
I131
sg2
((lp465
I134228773
aI134253349
atRp466
I2
sg2
((lp467
I2106637
aI33560861
atRp468
I129
sg2
((lp469
I33560861
aI67127839
atRp470
I35
sg2
((lp471
I8423187
aI2131213
atRp472
I54
sg2
((lp473
I33573149
aI134224677
atRp474
I31
sg2
((lp475
I1065995
aI134228773
atRp476
I125
sg2
((lp477
I266757
aI67127839
atRp478
I143
sg2
((lp479
I268454953
aI2114829
atRp480
I30
sg2
((lp481
I4212241
aI134224677
atRp482
I112
sg2
((lp483
I81922
aI67115551
atRp484
I146
sg2
((lp485
I4228625
aI33564957
atRp486
I108
sg2
((lp487
I1082379
aI557831
atRp488
I63
sg2
((lp489
I134228773
aI529159
atRp490
I128
sg2
((lp491
I4212241
aI2114829
atRp492
I48
sg2
((lp493
I33589533
aI533255
atRp494
I149
sg2
((lp495
I1082379
aI67144223
atRp496
I66
sg2
((lp497
I2131213
aI541447
atRp498
I130
sg2
((lp499
I33564957
aI134253349
atRp500
I31
sg2
((lp501
I4204049
aI33573149
atRp502
I108
sg2
((lp503
I4199953
aI147715
atRp504
I167
sg2
((lp505
I1057803
aI557831
atRp506
I123
sg2
((lp507
I147715
aI2114829
atRp508
I103
sg2
((lp509
I1057803
aI67119647
atRp510
I66
sg2
((lp511
I268446761
aI4228625
atRp512
I91
sg2
((lp513
I1082379
aI67115551
atRp514
I137
sg2
((lp515
I4228625
aI139523
atRp516
I167
sg2
((lp517
I268471337
aI16783383
atRp518
I42
sg2
((lp519
I67144223
aI16812055
atRp520
I15
sg2
((lp521
I4199953
aI16783383
atRp522
I38
sg2
((lp523
I135427
aI2102541
atRp524
I103
sg2
((lp525
I268471337
aI4228625
atRp526
I24
sg2
((lp527
I8406803
aI134253349
atRp528
I81
sg2
((lp529
I33589533
aI16787479
atRp530
I47
sg2
((lp531
I139523
aI279045
atRp532
I142
sg2
((lp533
I69634
aI8394515
atRp534
I111
sg2
((lp535
I164099
aI295429
atRp536
I84
sg2
((lp537
I67119647
aI67127839
atRp538
I3
sg2
((lp539
I134224677
aI16787479
atRp540
I45
sg2
((lp541
I98306
aI16812055
atRp542
I98
sg2
((lp543
I279045
aI67127839
atRp544
I71
sg2
((lp545
I279045
aI16795671
atRp546
I95
sg2
((lp547
I8406803
aI533255
atRp548
I150
sg2
((lp549
I268454953
aI134224677
atRp550
I11
sg2
((lp551
I147715
aI266757
atRp552
I142
sg2
((lp553
I139523
aI67119647
atRp554
I72
sg2
((lp555
I2114829
aI557831
atRp556
I130
sg2
((lp557
I268442665
aI8406803
atRp558
I76
sg2
((lp559
I98306
aI529159
atRp560
I151
sg2
((lp561
I135427
aI33589533
atRp562
I153
sg2
((lp563
I134224677
aI67127839
atRp564
I20
sg2
((lp565
I33589533
aI270853
atRp566
I152
sg2
((lp567
I1057803
aI16783383
atRp568
I140
sg2
((lp569
I4204049
aI8423187
atRp570
I99
sg2
((lp571
I268446761
aI8406803
atRp572
I76
sg2
((lp573
I4199953
aI69634
atRp574
I118
sg2
((lp575
I135427
aI266757
atRp576
I84
sg2
((lp577
I268442665
aI295429
atRp578
I104
sg2
((lp579
I135427
aI67144223
atRp580
I144
sg2
((lp581
I1053707
aI67119647
atRp582
I137
sg2
((lp583
I8406803
aI557831
atRp584
I150
sg2
((lp585
I268471337
aI557831
atRp586
I28
sg2
((lp587
I2102541
aI2131213
atRp588
I29
sg2
((lp589
I8423187
aI134236965
atRp590
I81
sg2
((lp591
I33589533
aI16812055
atRp592
I16
sg2
((lp593
I4204049
aI139523
atRp594
I116
sg2
((lp595
I8423187
aI266757
atRp596
I164
sg2
((lp597
I268442665
aI16795671
atRp598
I42
sg2
((lp599
I2106637
aI295429
atRp600
I145
sg2
((lp601
I33589533
aI67115551
atRp602
I35
sg2
((lp603
I8398611
aI1057803
atRp604
I68
sg2
((lp605
I4204049
aI67119647
atRp606
I43
sg2
((lp607
I2106637
aI16812055
atRp608
I124
sg2
((lp609
I147715
aI135427
atRp610
I52
sg2
((lp611
I69634
aI67115551
atRp612
I75
sg2
((lp613
I268454953
aI533255
atRp614
I101
sg2
((lp615
I1057803
aI135427
atRp616
I148
sg2
((lp617
I8406803
aI16795671
atRp618
I23
sg2
((lp619
I33564957
aI67127839
atRp620
I35
sg2
((lp621
I69634
aI164099
atRp622
I159
sg2
((lp623
I268446761
aI270853
atRp624
I32
sg2
((lp625
I1082379
aI16812055
atRp626
I74
sg2
((lp627
I8398611
aI1065995
atRp628
I134
sg2
((lp629
I8394515
aI135427
atRp630
I107
sg2
((lp631
I8398611
aI134228773
atRp632
I22
sg2
((lp633
I164099
aI67119647
atRp634
I144
sg2
((lp635
I16812055
aI533255
atRp636
I157
sg2
((lp637
I268471337
aI2131213
atRp638
I30
sg2
((lp639
I1057803
aI16787479
atRp640
I74
sg2
((lp641
I8406803
aI67119647
atRp642
I83
sg2
((lp643
I1065995
aI67127839
atRp644
I66
sg2
((lp645
I33560861
aI533255
atRp646
I149
sg2
((lp647
I1082379
aI134224677
atRp648
I125
sg2
((lp649
I279045
aI67144223
atRp650
I143
sg2
((lp651
I98306
aI164099
atRp652
I105
sg2
((lp653
I4212241
aI134236965
atRp654
I37
sg2
((lp655
I4199953
aI529159
atRp656
I78
sg2
((lp657
I73730
aI67144223
atRp658
I146
sg2
((lp659
I4212241
aI33560861
atRp660
I108
sg2
((lp661
I135427
aI134228773
atRp662
I133
sg2
((lp663
I164099
aI2131213
atRp664
I103
sg2
((lp665
I147715
aI2106637
atRp666
I161
sg2
((lp667
I266757
aI295429
atRp668
I50
sg2
((lp669
I2106637
aI270853
atRp670
I85
sg2
((lp671
I8394515
aI33573149
atRp672
I80
sg2
((lp673
I4199953
aI2106637
atRp674
I114
sg2
((lp675
I164099
aI266757
atRp676
I142
sg2
((lp677
I4199953
aI67127839
atRp678
I115
sg2
((lp679
I8394515
aI139523
atRp680
I165
sg2
((lp681
I147715
aI134228773
atRp682
I133
sg2
((lp683
I2102541
aI134253349
atRp684
I122
sg2
((lp685
I73730
aI33564957
atRp686
I89
sg2
((lp687
I268471337
aI98306
atRp688
I39
sg2
((lp689
I268454953
aI16795671
atRp690
I12
sg2
((lp691
I266757
aI67119647
atRp692
I143
sg2
((lp693
I69634
aI295429
atRp694
I154
sg2
((lp695
I268442665
aI279045
atRp696
I104
sg2
((lp697
I529159
aI541447
atRp698
I46
sg2
((lp699
I268446761
aI279045
atRp700
I104
sg2
((lp701
I268454953
aI33560861
atRp702
I27
sg2
((lp703
I164099
aI16812055
atRp704
I96
sg2
((lp705
I73730
aI270853
atRp706
I97
sg2
((lp707
I8398611
aI33560861
atRp708
I80
sg2
((lp709
I1053707
aI529159
atRp710
I63
sg2
((lp711
I134236965
aI16787479
atRp712
I45
sg2
((lp713
I81922
aI16783383
atRp714
I162
sg2
((lp715
I33589533
aI266757
atRp716
I152
sg2
((lp717
I268454953
aI134236965
atRp718
I4
sg2
((lp719
I4212241
aI73730
atRp720
I168
sg2
((lp721
I164099
aI33589533
atRp722
I87
sg2
((lp723
I81922
aI33589533
atRp724
I155
sg2
((lp725
I8423187
aI2114829
atRp726
I119
sg2
((lp727
I270853
aI33560861
atRp728
I152
sg2
((lp729
I69634
aI529159
atRp730
I92
sg2
((lp731
I33560861
aI16812055
atRp732
I47
sg2
((lp733
I98306
aI8423187
atRp734
I111
sg2
((lp735
I4228625
aI2102541
atRp736
I114
sg2
((lp737
I147715
aI33589533
atRp738
I153
sg2
((lp739
I33564957
aI16783383
atRp740
I47
sg2
((lp741
I16787479
aI16783383
atRp742
I10
sg2
((lp743
I147715
aI8394515
atRp744
I165
sg2
((lp745
I134228773
aI279045
atRp746
I132
sg2
((lp747
I4204049
aI4228625
atRp748
I21
sg2
((lp749
I81922
aI73730
atRp750
I51
sg2
((lp751
I268442665
aI139523
atRp752
I109
sg2
((lp753
I73730
aI1082379
atRp754
I163
sg2
((lp755
I8398611
aI134224677
atRp756
I81
sg2
((lp757
I1053707
aI1065995
atRp758
I36
sg2
((lp759
I8406803
aI279045
atRp760
I106
sg2
((lp761
I266757
aI2114829
atRp762
I145
sg2
((lp763
I33564957
aI67119647
atRp764
I13
sg2
((lp765
I4228625
aI2106637
atRp766
I114
sg2
((lp767
I268454953
aI4212241
atRp768
I24
sg2
((lp769
I81922
aI2106637
atRp770
I169
sg2
((lp771
I69634
aI266757
atRp772
I97
sg2
((lp773
I134228773
aI16812055
atRp774
I45
sg2
((lp775
I4228625
aI8406803
atRp776
I99
sg2
((lp777
I1082379
aI270853
atRp778
I136
sg2
((lp779
I268454953
aI8423187
atRp780
I76
sg2
((lp781
I268454953
aI135427
atRp782
I109
sg2
((lp783
I2131213
aI33573149
atRp784
I129
sg2
((lp785
I8398611
aI16783383
atRp786
I73
sg2
((lp787
I268442665
aI33560861
atRp788
I8
sg2
((lp789
I1057803
aI33573149
atRp790
I147
sg2
((lp791
I81922
aI164099
atRp792
I159
sg2
((lp793
I16783383
aI67115551
atRp794
I15
sg2
((lp795
I139523
aI16812055
atRp796
I160
sg2
((lp797
I1057803
aI67144223
atRp798
I137
sg2
((lp799
I2106637
aI134224677
atRp800
I122
sg2
((lp801
I8406803
aI67115551
atRp802
I83
sg2
((lp803
I1053707
aI16812055
atRp804
I140
sg2
((lp805
I4204049
aI8394515
atRp806
I99
sg2
((lp807
I2114829
aI67144223
atRp808
I131
sg2
((lp809
I33573149
aI67119647
atRp810
I35
sg2
((lp811
I2131213
aI16795671
atRp812
I124
sg2
((lp813
I4212241
aI81922
atRp814
I118
sg2
((lp815
I139523
aI67115551
atRp816
I144
sg2
((lp817
I73730
aI69634
atRp818
I51
sg2
((lp819
I1057803
aI134228773
atRp820
I53
sg2
((lp821
I98306
aI33564957
atRp822
I155
sg2
((lp823
I134236965
aI134253349
atRp824
I2
sg2
((lp825
I69634
aI67144223
atRp826
I146
sg2
((lp827
I4199953
aI33560861
atRp828
I41
sg2
((lp829
I1065995
aI533255
atRp830
I123
sg2
((lp831
I134253349
aI529159
atRp832
I128
sg2
((lp833
I1065995
aI270853
atRp834
I136
sg2
((lp835
I33589533
aI557831
atRp836
I82
sg2
((lp837
I134228773
aI67119647
atRp838
I7
sg2
((lp839
I1057803
aI2131213
atRp840
I121
sg2
((lp841
I33564957
aI134228773
atRp842
I9
sg2
((lp843
I268454953
aI266757
atRp844
I104
sg2
((lp845
I4204049
aI16812055
atRp846
I100
sg2
((lp847
I268446761
aI1082379
atRp848
I113
sg2
((lp849
I4212241
aI67144223
atRp850
I115
sg2
((lp851
I73730
aI164099
atRp852
I159
sg2
((lp853
I8398611
aI164099
atRp854
I165
sg2
((lp855
I268442665
aI16787479
atRp856
I42
sg2
((lp857
I268446761
aI1053707
atRp858
I113
sg2
((lp859
I1065995
aI33589533
atRp860
I147
sg2
((lp861
I4199953
aI8398611
atRp862
I99
sg2
((lp863
I8394515
aI67115551
atRp864
I25
sg2
((lp865
I557831
aI16783383
atRp866
I157
sg2
((lp867
I33564957
aI16787479
atRp868
I16
sg2
((lp869
I81922
aI139523
atRp870
I159
sg2
((lp871
I16795671
aI67115551
atRp872
I49
sg2
((lp873
I270853
aI134236965
atRp874
I132
sg2
((lp875
I147715
aI67127839
atRp876
I72
sg2
((lp877
I73730
aI16795671
atRp878
I162
sg2
((lp879
I33589533
aI279045
atRp880
I152
sg2
((lp881
I33573149
aI134253349
atRp882
I31
sg2
((lp883
I33560861
aI16783383
atRp884
I16
sg2
((lp885
I268442665
aI134236965
atRp886
I11
sg2
((lp887
I1065995
aI529159
atRp888
I123
sg2
((lp889
I139523
aI67144223
atRp890
I144
sg2
((lp891
I2106637
aI541447
atRp892
I130
sg2
((lp893
I164099
aI134236965
atRp894
I133
sg2
((lp895
I2114829
aI279045
atRp896
I85
sg2
((lp897
I2102541
aI67115551
atRp898
I61
sg2
((lp899
I135427
aI270853
atRp900
I142
sg2
((lp901
I164099
aI16783383
atRp902
I160
sg2
((lp903
I67144223
aI67127839
atRp904
I3
sg2
((lp905
I98306
aI134228773
atRp906
I135
sg2
((lp907
I164099
aI270853
atRp908
I142
sg2
((lp909
I8406803
aI33560861
atRp910
I80
sg2
((lp911
I139523
aI529159
atRp912
I138
sg2
((lp913
I1065995
aI16783383
atRp914
I140
sg2
((lp915
I8398611
aI541447
atRp916
I150
sg2
((lp917
I1082379
aI2102541
atRp918
I121
sg2
((lp919
I268471337
aI533255
atRp920
I101
sg2
((lp921
I4199953
aI279045
atRp922
I156
sg2
((lp923
I4199953
aI16795671
atRp924
I100
sg2
((lp925
I134236965
aI279045
atRp926
I58
sg2
((lp927
I164099
aI529159
atRp928
I138
sg2
((lp929
I8423187
aI16787479
atRp930
I73
sg2
((lp931
I4199953
aI295429
atRp932
I156
sg2
((lp933
I1065995
aI139523
atRp934
I148
sg2
((lp935
I1057803
aI8406803
atRp936
I134
sg2
((lp937
I1065995
aI266757
atRp938
I136
sg2
((lp939
I268454953
aI268446761
atRp940
I1
sg2
((lp941
I81922
aI33573149
atRp942
I89
sg2
((lp943
I8394515
aI2131213
atRp944
I119
sg2
((lp945
I270853
aI16812055
atRp946
I158
sg2
((lp947
I268446761
aI268442665
atRp948
I1
sg2
((lp949
I69634
aI16812055
atRp950
I162
sg2
((lp951
I4228625
aI134236965
atRp952
I112
sg2
((lp953
I69634
aI139523
atRp954
I159
sg2
((lp955
I4199953
aI8394515
atRp956
I40
sg2
((lp957
I67127839
aI533255
atRp958
I141
sg2
((lp959
I1082379
aI8398611
atRp960
I134
sg2
((lp961
I4212241
aI1057803
atRp962
I126
sg2
((lp963
I33573149
aI67115551
atRp964
I35
sg2
((lp965
I4212241
aI8398611
atRp966
I99
sg2
((lp967
I2106637
aI67115551
atRp968
I131
sg2
((lp969
I4204049
aI98306
atRp970
I168
sg2
((lp971
I1065995
aI16787479
atRp972
I140
sg2
((lp973
I2106637
aI529159
atRp974
I130
sg2
((lp975
I268446761
aI2131213
atRp976
I102
sg2
((lp977
I1057803
aI134224677
atRp978
I125
sg2
((lp979
I279045
aI67119647
atRp980
I143
sg2
((lp981
I134228773
aI134236965
atRp982
I2
sg2
((lp983
I4199953
aI134224677
atRp984
I37
sg2
((lp985
I8398611
aI2131213
atRp986
I119
sg2
((lp987
I98306
aI67127839
atRp988
I146
sg2
((lp989
I1082379
aI529159
atRp990
I123
sg2
((lp991
I73730
aI134253349
atRp992
I135
sg2
((lp993
I1057803
aI8394515
atRp994
I134
sg2
((lp995
I4212241
aI135427
atRp996
I167
sg2
((lp997
I33564957
aI134224677
atRp998
I31
sg2
((lp999
I268471337
aI268442665
atRp1000
I1
sg2
((lp1001
I73730
aI1053707
atRp1002
I163
sg2
((lp1003
I98306
aI1053707
atRp1004
I163
sg2
((lp1005
I69634
aI1053707
atRp1006
I110
sg2
((lp1007
I98306
aI2106637
atRp1008
I169
sg2
((lp1009
I268454953
aI33589533
atRp1010
I27
sg2
((lp1011
I16795671
aI16812055
atRp1012
I10
sg2
((lp1013
I164099
aI8394515
atRp1014
I165
sg2
((lp1015
I69634
aI2114829
atRp1016
I169
sg2
((lp1017
I4199953
aI268454953
atRp1018
I91
sg2
((lp1019
I98306
aI541447
atRp1020
I151
sg2
((lp1021
I98306
aI270853
atRp1022
I154
sg2
((lp1023
I16795671
aI67127839
atRp1024
I15
sg2
((lp1025
I8394515
aI16787479
atRp1026
I73
sg2
((lp1027
I1065995
aI135427
atRp1028
I148
sg2
((lp1029
I73730
aI2106637
atRp1030
I120
sg2
((lp1031
I16787479
aI67144223
atRp1032
I49
sg2
((lp1033
I4212241
aI4228625
atRp1034
I21
sg2
((lp1035
I266757
aI16812055
atRp1036
I158
sg2
((lp1037
I1057803
aI266757
atRp1038
I136
sg2
((lp1039
I8394515
aI529159
atRp1040
I88
sg2
((lp1041
I164099
aI33564957
atRp1042
I153
sg2
((lp1043
I8423187
aI1065995
atRp1044
I134
sg2
((lp1045
I134236965
aI541447
atRp1046
I55
sg2
((lp1047
I4212241
aI69634
atRp1048
I168
sg2
((lp1049
I2131213
aI529159
atRp1050
I130
sg2
((lp1051
I268454953
aI8398611
atRp1052
I76
sg2
((lp1053
I81922
aI541447
atRp1054
I92
sg2
((lp1055
I268446761
aI67119647
atRp1056
I6
sg2
((lp1057
I1082379
aI134253349
atRp1058
I53
sg2
((lp1059
I268446761
aI1065995
atRp1060
I113
sg2
((lp1061
I73730
aI67119647
atRp1062
I75
sg2
((lp1063
I1082379
aI134228773
atRp1064
I125
sg2
((lp1065
I134224677
aI16812055
atRp1066
I45
sg2
((lp1067
I8406803
aI67144223
atRp1068
I83
sg2
((lp1069
I147715
aI533255
atRp1070
I138
sg2
((lp1071
I8394515
aI557831
atRp1072
I150
sg2
((lp1073
I1057803
aI2106637
atRp1074
I56
sg2
((lp1075
I279045
aI529159
atRp1076
I127
sg2
((lp1077
I8423187
aI8394515
atRp1078
I17
sg2
((lp1079
I268442665
aI1053707
atRp1080
I34
sg2
((lp1081
I8394515
aI270853
atRp1082
I164
sg2
((lp1083
I1082379
aI33589533
atRp1084
I79
sg2
((lp1085
I268446761
aI16787479
atRp1086
I12
sg2
((lp1087
I73730
aI139523
atRp1088
I105
sg2
((lp1089
I8406803
aI16812055
atRp1090
I73
sg2
((lp1091
I69634
aI279045
atRp1092
I154
sg2
((lp1093
I134253349
aI16783383
atRp1094
I45
sg2
((lp1095
I1082379
aI135427
atRp1096
I148
sg2
((lp1097
I8423187
aI1053707
atRp1098
I134
sg2
((lp1099
I69634
aI134253349
atRp1100
I135
sg2
((lp1101
I8394515
aI134236965
atRp1102
I81
sg2
((lp1103
I1065995
aI279045
atRp1104
I70
sg2
((lp1105
I2106637
aI33589533
atRp1106
I129
sg2
((lp1107
I270853
aI33573149
atRp1108
I152
sg2
((lp1109
I16783383
aI533255
atRp1110
I157
sg2
((lp1111
I69634
aI134236965
atRp1112
I135
sg2
((lp1113
I8406803
aI16783383
atRp1114
I73
sg2
((lp1115
I268454953
aI2131213
atRp1116
I102
sg2
((lp1117
I268471337
aI295429
atRp1118
I32
sg2
((lp1119
I270853
aI295429
atRp1120
I50
sg2
((lp1121
I134224677
aI134253349
atRp1122
I2
sg2
((lp1123
I268471337
aI147715
atRp1124
I109
sg2
((lp1125
I1065995
aI16795671
atRp1126
I74
sg2
((lp1127
I8406803
aI295429
atRp1128
I164
sg2
((lp1129
I268471337
aI134224677
atRp1130
I11
sg2
((lp1131
I279045
aI134253349
atRp1132
I132
sg2
((lp1133
I4199953
aI8423187
atRp1134
I99
sg2
((lp1135
I2114829
aI67119647
atRp1136
I131
sg2
((lp1137
I268471337
aI266757
atRp1138
I104
sg2
((lp1139
I4228625
aI69634
atRp1140
I168
sg2
((lp1141
I147715
aI134236965
atRp1142
I60
sg2
((lp1143
I1082379
aI16783383
atRp1144
I140
sg2
((lp1145
I2106637
aI2131213
atRp1146
I29
sg2
((lp1147
I4212241
aI33589533
atRp1148
I108
sg2
((lp1149
I164099
aI139523
atRp1150
I52
sg2
((lp1151
I1057803
aI134236965
atRp1152
I125
sg2
((lp1153
I295429
aI67115551
atRp1154
I143
sg2
((lp1155
I268471337
aI2114829
atRp1156
I102
sg2
((lp1157
I4199953
aI541447
atRp1158
I139
sg2
((lp1159
I69634
aI67119647
atRp1160
I146
sg2
((lp1161
I1065995
aI557831
atRp1162
I123
sg2
((lp1163
I67144223
aI541447
atRp1164
I141
sg2
((lp1165
I135427
aI295429
atRp1166
I142
sg2
((lp1167
I33564957
aI557831
atRp1168
I149
sg2
((lp1169
I4228625
aI147715
atRp1170
I167
sg2
((lp1171
I529159
aI16783383
atRp1172
I93
sg2
((lp1173
I268446761
aI266757
atRp1174
I104
sg2
((lp1175
I268454953
aI98306
atRp1176
I117
sg2
((lp1177
I1057803
aI270853
atRp1178
I70
sg2
((lp1179
I4212241
aI67119647
atRp1180
I115
sg2
((lp1181
I73730
aI135427
atRp1182
I159
sg2
((lp1183
I2106637
aI134228773
atRp1184
I44
sg2
((lp1185
I81922
aI8398611
atRp1186
I166
sg2
((lp1187
I8423187
aI295429
atRp1188
I106
sg2
((lp1189
I4212241
aI1082379
atRp1190
I126
sg2
((lp1191
I1057803
aI533255
atRp1192
I63
sg2
((lp1193
I1057803
aI33589533
atRp1194
I147
sg2
((lp1195
I8423187
aI134228773
atRp1196
I81
sg2
((lp1197
I1053707
aI295429
atRp1198
I136
sg2
((lp1199
I8423187
aI16812055
atRp1200
I23
sg2
((lp1201
I4199953
aI33573149
atRp1202
I108
sg2
((lp1203
I4212241
aI295429
atRp1204
I156
sg2
((lp1205
I73730
aI134228773
atRp1206
I59
sg2
((lp1207
I16787479
aI529159
atRp1208
I157
sg2
((lp1209
I33564957
aI16795671
atRp1210
I47
sg2
((lp1211
I4212241
aI1065995
atRp1212
I62
sg2
((lp1213
I16787479
aI67115551
atRp1214
I49
sg2
((lp1215
I73730
aI1057803
atRp1216
I110
sg2
((lp1217
I557831
aI67144223
atRp1218
I69
sg2
((lp1219
I67115551
aI533255
atRp1220
I141
sg2
((lp1221
I4228625
aI279045
atRp1222
I156
sg2
((lp1223
I268446761
aI69634
atRp1224
I117
sg2
((lp1225
I81922
aI2102541
atRp1226
I169
sg2
((lp1227
I98306
aI16795671
atRp1228
I162
sg2
((lp1229
I33564957
aI279045
atRp1230
I152
sg2
((lp1231
I268442665
aI134228773
atRp1232
I11
sg2
((lp1233
I8394515
aI2114829
atRp1234
I119
sg2
((lp1235
I147715
aI33560861
atRp1236
I153
sg2
((lp1237
I8406803
aI33564957
atRp1238
I80
sg2
((lp1239
I164099
aI67127839
atRp1240
I144
sg2
((lp1241
I81922
aI16787479
atRp1242
I162
sg2
((lp1243
I268471337
aI8394515
atRp1244
I76
sg2
((lp1245
I81922
aI529159
atRp1246
I151
sg2
((lp1247
I295429
aI134224677
atRp1248
I132
sg2
((lp1249
I8423187
aI2106637
atRp1250
I119
sg2
((lp1251
I67127839
aI541447
atRp1252
I69
sg2
((lp1253
I81922
aI8406803
atRp1254
I111
sg2
((lp1255
I2114829
aI541447
atRp1256
I67
sg2
((lp1257
I81922
aI134253349
atRp1258
I135
sg2
((lp1259
I164099
aI279045
atRp1260
I142
sg2
((lp1261
I8394515
aI67119647
atRp1262
I83
sg2
((lp1263
I135427
aI557831
atRp1264
I138
sg2
((lp1265
I2114829
aI2131213
atRp1266
I29
sg2
((lp1267
I139523
aI16783383
atRp1268
I160
sg2
((lp1269
I33589533
aI67127839
atRp1270
I35
sg2
((lp1271
I268454953
aI557831
atRp1272
I101
sg2
((lp1273
I4199953
aI16787479
atRp1274
I100
sg2
((lp1275
I268442665
aI8394515
atRp1276
I19
sg2
((lp1277
I8394515
aI279045
atRp1278
I164
sg2
((lp1279
I2106637
aI279045
atRp1280
I145
sg2
((lp1281
I33560861
aI67144223
atRp1282
I35
sg2
((lp1283
I139523
aI2106637
atRp1284
I103
sg2
((lp1285
I1053707
aI135427
atRp1286
I90
sg2
((lp1287
I1065995
aI8406803
atRp1288
I68
sg2
((lp1289
I8398611
aI529159
atRp1290
I150
sg2
((lp1291
I2131213
aI16787479
atRp1292
I124
sg2
((lp1293
I8423187
aI16795671
atRp1294
I73
sg2
((lp1295
I4212241
aI164099
atRp1296
I167
sg2
((lp1297
I1053707
aI16795671
atRp1298
I140
sg2
((lp1299
I164099
aI135427
atRp1300
I52
sg2
((lp1301
I16795671
aI529159
atRp1302
I157
sg2
((lp1303
I266757
aI33560861
atRp1304
I86
sg2
((lp1305
I33564957
aI2102541
atRp1306
I129
sg2
((lp1307
I69634
aI147715
atRp1308
I159
sg2
((lp1309
I73730
aI295429
atRp1310
I154
sg2
((lp1311
I8398611
aI134236965
atRp1312
I81
sg2
((lp1313
I268446761
aI147715
atRp1314
I109
sg2
((lp1315
I2102541
aI67144223
atRp1316
I131
sg2
((lp1317
I135427
aI16783383
atRp1318
I96
sg2
((lp1319
I33564957
aI2114829
atRp1320
I129
sg2
((lp1321
I268454953
aI73730
atRp1322
I117
sg2
((lp1323
I295429
aI67144223
atRp1324
I71
sg2
((lp1325
I1065995
aI134224677
atRp1326
I125
sg2
((lp1327
I134228773
aI67144223
atRp1328
I20
sg2
((lp1329
I1065995
aI67115551
atRp1330
I137
sg2
((lp1331
I139523
aI67127839
atRp1332
I144
sg2
((lp1333
I4212241
aI557831
atRp1334
I139
sg2
((lp1335
I81922
aI67119647
atRp1336
I146
sg2
((lp1337
I16795671
aI533255
atRp1338
I157
sg2
((lp1339
I33573149
aI16783383
atRp1340
I47
sg2
((lp1341
I134228773
aI533255
atRp1342
I55
sg2
((lp1343
I33560861
aI541447
atRp1344
I149
sg2
((lp1345
I8423187
aI33589533
atRp1346
I26
sg2
((lp1347
I134228773
aI541447
atRp1348
I128
sg2
((lp1349
I98306
aI8406803
atRp1350
I166
sg2
((lp1351
I98306
aI1082379
atRp1352
I110
sg2
((lp1353
I4228625
aI67115551
atRp1354
I115
sg2
((lp1355
I2102541
aI134236965
atRp1356
I122
sg2
((lp1357
I268454953
aI33564957
atRp1358
I27
sg2
((lp1359
I4212241
aI8394515
atRp1360
I99
sg2
((lp1361
I1082379
aI1057803
atRp1362
I36
sg2
((lp1363
I529159
aI67144223
atRp1364
I141
sg2
((lp1365
I8423187
aI164099
atRp1366
I107
sg2
((lp1367
I139523
aI533255
atRp1368
I77
sg2
((lp1369
I4199953
aI98306
atRp1370
I168
sg2
((lp1371
I4199953
aI268446761
atRp1372
I91
sg2
((lp1373
I135427
aI2106637
atRp1374
I161
sg2
((lp1375
I164099
aI134253349
atRp1376
I60
sg2
((lp1377
I1057803
aI16812055
atRp1378
I140
sg2
((lp1379
I33589533
aI16783383
atRp1380
I47
sg2
((lp1381
I98306
aI279045
atRp1382
I154
sg2
((lp1383
I2102541
aI541447
atRp1384
I130
sg2
((lp1385
I2106637
aI67127839
atRp1386
I131
sg2
((lp1387
I134224677
aI16783383
atRp1388
I14
sg2
((lp1389
I2106637
aI266757
atRp1390
I145
sg2
((lp1391
I73730
aI67127839
atRp1392
I146
sg2
((lp1393
I8398611
aI270853
atRp1394
I106
sg2
((lp1395
I268471337
aI33560861
atRp1396
I27
sg2
((lp1397
I139523
aI33564957
atRp1398
I87
sg2
((lp1399
I4199953
aI268442665
atRp1400
I24
sg2
((lp1401
I135427
aI67119647
atRp1402
I144
sg2
((lp1403
I268454953
aI8406803
atRp1404
I19
sg2
((lp1405
I81922
aI2114829
atRp1406
I120
sg2
((lp1407
I98306
aI533255
atRp1408
I151
sg2
((lp1409
I268446761
aI67144223
atRp1410
I18
sg2
((lp1411
I4212241
aI67127839
atRp1412
I43
sg2
((lp1413
I81922
aI266757
atRp1414
I154
sg2
((lp1415
I268442665
aI134253349
atRp1416
I11
sg2
((lp1417
I4199953
aI139523
atRp1418
I167
sg2
((lp1419
I139523
aI266757
atRp1420
I142
sg2
((lp1421
I266757
aI541447
atRp1422
I127
sg2
((lp1423
I8398611
aI67127839
atRp1424
I83
sg2
((lp1425
I164099
aI1057803
atRp1426
I148
sg2
((lp1427
I1057803
aI2114829
atRp1428
I121
sg2
((lp1429
I268446761
aI529159
atRp1430
I101
sg2
((lp1431
I67144223
aI67119647
atRp1432
I3
sg2
((lp1433
I134236965
aI67115551
atRp1434
I20
sg2
((lp1435
I2102541
aI533255
atRp1436
I130
sg2
((lp1437
I147715
aI33564957
atRp1438
I153
sg2
((lp1439
I164099
aI134228773
atRp1440
I133
sg2
((lp1441
I266757
aI2131213
atRp1442
I145
sg2
((lp1443
I268471337
aI16795671
atRp1444
I42
sg2
((lp1445
I164099
aI67115551
atRp1446
I144
sg2
((lp1447
I4204049
aI73730
atRp1448
I118
sg2
((lp1449
I8394515
aI295429
atRp1450
I164
sg2
((lp1451
I8398611
aI1053707
atRp1452
I134
sg2
((lp1453
I2102541
aI16812055
atRp1454
I124
sg2
((lp1455
I541447
aI533255
atRp1456
I46
sg2
((lp1457
I134228773
aI16783383
atRp1458
I45
sg2
((lp1459
I266757
aI67144223
atRp1460
I143
sg2
((lp1461
I8423187
aI2102541
atRp1462
I119
sg2
((lp1463
I69634
aI33589533
atRp1464
I155
sg2
((lp1465
I33564957
aI270853
atRp1466
I86
sg2
((lp1467
I16783383
aI541447
atRp1468
I157
sg2
((lp1469
I4212241
aI98306
atRp1470
I168
sg2
((lp1471
I139523
aI16795671
atRp1472
I160
sg2
((lp1473
I33589533
aI134224677
atRp1474
I31
sg2
((lp1475
I1082379
aI147715
atRp1476
I148
sg2
((lp1477
I135427
aI33573149
atRp1478
I153
sg2
((lp1479
I33589533
aI295429
atRp1480
I86
sg2
((lp1481
I69634
aI2102541
atRp1482
I120
sg2
((lp1483
I270853
aI533255
atRp1484
I65
sg2
((lp1485
I98306
aI295429
atRp1486
I97
sg2
((lp1487
I2102541
aI529159
atRp1488
I67
sg2
((lp1489
I33560861
aI67115551
atRp1490
I13
sg2
((lp1491
I4199953
aI4212241
atRp1492
I21
sg2
((lp1493
I1065995
aI134236965
atRp1494
I53
sg2
((lp1495
I1053707
aI2102541
atRp1496
I56
sg2
((lp1497
I268446761
aI2114829
atRp1498
I102
sg2
((lp1499
I4199953
aI134253349
atRp1500
I112
sg2
((lp1501
I8394515
aI2106637
atRp1502
I119
sg2
((lp1503
I69634
aI67127839
atRp1504
I146
sg2
((lp1505
I4228625
aI33589533
atRp1506
I41
sg2
((lp1507
I139523
aI134228773
atRp1508
I60
sg2
((lp1509
I134236965
aI529159
atRp1510
I128
sg2
((lp1511
I4204049
aI67144223
atRp1512
I115
sg2
((lp1513
I33573149
aI557831
atRp1514
I149
sg2
((lp1515
I4204049
aI147715
atRp1516
I167
sg2
((lp1517
I139523
aI134224677
atRp1518
I133
sg2
((lp1519
I134236965
aI533255
atRp1520
I128
sg2
((lp1521
I16787479
aI67127839
atRp1522
I49
sg2
((lp1523
I81922
aI67144223
atRp1524
I146
sg2
((lp1525
I81922
aI1053707
atRp1526
I163
sg2
((lp1527
I268471337
aI2102541
atRp1528
I102
sg2
((lp1529
I1082379
aI33560861
atRp1530
I147
sg2
((lp1531
I134228773
aI2131213
atRp1532
I122
sg2
((lp1533
I81922
aI33560861
atRp1534
I155
sg2
((lp1535
I4199953
aI2131213
atRp1536
I114
sg2
((lp1537
I266757
aI529159
atRp1538
I65
sg2
((lp1539
I4212241
aI270853
atRp1540
I156
sg2
((lp1541
I270853
aI2131213
atRp1542
I145
sg2
((lp1543
I33573149
aI16812055
atRp1544
I47
sg2
((lp1545
I69634
aI270853
atRp1546
I154
sg2
((lp1547
I8398611
aI33589533
atRp1548
I80
sg2
((lp1549
I67144223
aI533255
atRp1550
I141
sg2
((lp1551
I16787479
aI16812055
atRp1552
I10
sg2
((lp1553
I268446761
aI73730
atRp1554
I39
sg2
((lp1555
I69634
aI2131213
atRp1556
I169
sg2
((lp1557
I134228773
aI134224677
atRp1558
I2
sg2
((lp1559
I268442665
aI529159
atRp1560
I28
sg2
((lp1561
I33573149
aI279045
atRp1562
I86
sg2
((lp1563
I4228625
aI529159
atRp1564
I139
sg2
((lp1565
I4204049
aI279045
atRp1566
I156
sg2
((lp1567
I1053707
aI134253349
atRp1568
I125
sg2
((lp1569
I4204049
aI33589533
atRp1570
I108
sg2
((lp1571
I147715
aI67119647
atRp1572
I144
sg2
((lp1573
I4212241
aI147715
atRp1574
I116
sg2
((lp1575
I33589533
aI16795671
atRp1576
I47
sg2
((lp1577
I69634
aI557831
atRp1578
I151
sg2
((lp1579
I270853
aI134224677
atRp1580
I132
sg2
((lp1581
I134253349
aI67115551
atRp1582
I20
sg2
((lp1583
I81922
aI67127839
atRp1584
I75
sg2
((lp1585
I266757
aI279045
atRp1586
I50
sg2
((lp1587
I73730
aI134236965
atRp1588
I135
sg2
((lp1589
I134236965
aI16812055
atRp1590
I45
sg2
((lp1591
I8394515
aI67144223
atRp1592
I83
sg2
((lp1593
I147715
aI8406803
atRp1594
I107
sg2
((lp1595
I4204049
aI16787479
atRp1596
I38
sg2
((lp1597
I1065995
aI2102541
atRp1598
I121
sg2
((lp1599
I270853
aI541447
atRp1600
I127
sg2
((lp1601
I4199953
aI16812055
atRp1602
I100
sg2
((lp1603
I4199953
aI135427
atRp1604
I116
sg2
((lp1605
I33573149
aI16795671
atRp1606
I16
sg2
((lp1607
I33589533
aI541447
atRp1608
I149
sg2
((lp1609
I4204049
aI33564957
atRp1610
I41
sg2
((lp1611
I33564957
aI67115551
atRp1612
I35
sg2
((lp1613
I73730
aI67115551
atRp1614
I146
sg2
((lp1615
I164099
aI2106637
atRp1616
I161
sg2
((lp1617
I147715
aI1057803
atRp1618
I148
sg2
((lp1619
I134228773
aI67115551
atRp1620
I20
sg2
((lp1621
I147715
aI2102541
atRp1622
I161
sg2
((lp1623
I2106637
aI16787479
atRp1624
I57
sg2
((lp1625
I8406803
aI2131213
atRp1626
I119
sg2
((lp1627
I270853
aI134228773
atRp1628
I58
sg2
((lp1629
I1053707
aI139523
atRp1630
I148
sg2
((lp1631
I8398611
aI16812055
atRp1632
I73
sg2
((lp1633
I268446761
aI134228773
atRp1634
I4
sg2
((lp1635
I268446761
aI16783383
atRp1636
I42
sg2
((lp1637
I134228773
aI33573149
atRp1638
I31
sg2
((lp1639
I135427
aI16812055
atRp1640
I160
sg2
((lp1641
I4228625
aI2114829
atRp1642
I114
sg2
((lp1643
I279045
aI16812055
atRp1644
I158
sg2
((lp1645
I4204049
aI67115551
atRp1646
I115
sg2
((lp1647
I4204049
aI529159
atRp1648
I139
sg2
((lp1649
I268471337
aI164099
atRp1650
I33
sg2
((lp1651
I33589533
aI2131213
atRp1652
I64
sg2
((lp1653
I4228625
aI73730
atRp1654
I168
sg2
((lp1655
I268454953
aI81922
atRp1656
I39
sg2
((lp1657
I557831
aI533255
atRp1658
I46
sg2
((lp1659
I4204049
aI1053707
atRp1660
I126
sg2
((lp1661
I4212241
aI16787479
atRp1662
I100
sg2
((lp1663
I4204049
aI134236965
atRp1664
I112
sg2
((lp1665
I8406803
aI2106637
atRp1666
I119
sg2
((lp1667
I4199953
aI33564957
atRp1668
I108
sg2
((lp1669
I1053707
aI557831
atRp1670
I123
sg2
((lp1671
I134228773
aI557831
atRp1672
I128
sg2
((lp1673
I16812055
aI67115551
atRp1674
I49
sg2
((lp1675
I270853
aI557831
atRp1676
I127
sg2
((lp1677
I134236965
aI33560861
atRp1678
I31
sg2
((lp1679
I557831
aI67119647
atRp1680
I141
sg2
((lp1681
I98306
aI1057803
atRp1682
I163
sg2
((lp1683
I2114829
aI33573149
atRp1684
I64
sg2
((lp1685
I268442665
aI16783383
atRp1686
I12
sg2
((lp1687
I164099
aI557831
atRp1688
I77
sg2
((lp1689
I147715
aI67115551
atRp1690
I144
sg2
((lp1691
I98306
aI8398611
atRp1692
I166
sg2
((lp1693
I295429
aI16795671
atRp1694
I158
sg2
((lp1695
I16787479
aI541447
atRp1696
I157
sg2
((lp1697
I268442665
aI4228625
atRp1698
I91
sg2
((lp1699
I4199953
aI134228773
atRp1700
I112
sg2
((lp1701
I541447
aI16812055
atRp1702
I157
sg2
((lp1703
I33560861
aI16787479
atRp1704
I47
sg2
((lp1705
I73730
aI279045
atRp1706
I154
sg2
((lp1707
I67127839
aI16812055
atRp1708
I49
sg2
((lp1709
I16795671
aI67144223
atRp1710
I49
sg2
((lp1711
I81922
aI2131213
atRp1712
I169
sg2
((lp1713
I98306
aI2102541
atRp1714
I169
sg2
((lp1715
I268446761
aI134236965
atRp1716
I11
sg2
((lp1717
I2114829
aI16795671
atRp1718
I57
sg2
((lp1719
I4228625
aI135427
atRp1720
I167
sg2
((lp1721
I67144223
aI16783383
atRp1722
I49
sg2
((lp1723
I2114829
aI529159
atRp1724
I130
sg2
((lp1725
I268446761
aI295429
atRp1726
I104
sg2
((lp1727
I81922
aI557831
atRp1728
I151
sg2
((lp1729
I268454953
aI67144223
atRp1730
I18
sg2
((lp1731
I139523
aI33560861
atRp1732
I153
sg2
((lp1733
I33589533
aI33564957
atRp1734
I5
sg2
((lp1735
I73730
aI147715
atRp1736
I159
sg2
((lp1737
I268442665
aI8423187
atRp1738
I76
sg2
((lp1739
I1065995
aI541447
atRp1740
I63
sg2
((lp1741
I164099
aI67144223
atRp1742
I72
sg2
((lp1743
I266757
aI134228773
atRp1744
I132
sg2
((lp1745
I268442665
aI8398611
atRp1746
I76
sg2
((lp1747
I1065995
aI2114829
atRp1748
I56
sg2
((lp1749
I268442665
aI557831
atRp1750
I101
sg2
((lp1751
I268442665
aI2102541
atRp1752
I30
sg2
((lp1753
I8394515
aI134228773
atRp1754
I81
sg2
((lp1755
I73730
aI8423187
atRp1756
I166
sg2
((lp1757
I8406803
aI270853
atRp1758
I164
sg2
((lp1759
I268454953
aI1082379
atRp1760
I113
sg2
((lp1761
I2114829
aI134236965
atRp1762
I44
sg2
((lp1763
I4204049
aI533255
atRp1764
I78
sg2
((lp1765
I147715
aI33573149
atRp1766
I87
sg2
((lp1767
I1053707
aI8406803
atRp1768
I134
sg2
((lp1769
I4204049
aI134253349
atRp1770
I112
sg2
((lp1771
I1053707
aI1057803
atRp1772
I36
sg2
((lp1773
I8406803
aI8394515
atRp1774
I17
sg2
((lp1775
I33589533
aI134236965
atRp1776
I31
sg2
((lp1777
I69634
aI134224677
atRp1778
I59
sg2
((lp1779
I67127839
aI67115551
atRp1780
I3
sg2
((lp1781
I4228625
aI1082379
atRp1782
I62
sg2
((lp1783
I139523
aI16787479
atRp1784
I96
sg2
((lp1785
I8423187
aI1057803
atRp1786
I134
sg2
((lp1787
I4204049
aI4212241
atRp1788
I21
sg2
((lp1789
I268454953
aI67115551
atRp1790
I18
sg2
((lp1791
I1053707
aI67115551
atRp1792
I66
sg2
((lp1793
I147715
aI541447
atRp1794
I77
sg2
((lp1795
I268442665
aI81922
atRp1796
I117
sg2
((lp1797
I69634
aI135427
atRp1798
I105
sg2
((lp1799
I33560861
aI67119647
atRp1800
I35
sg2
((lp1801
I2114829
aI67127839
atRp1802
I61
sg2
((lp1803
I1053707
aI134224677
atRp1804
I53
sg2
((lp1805
I33560861
aI557831
atRp1806
I149
sg2
((lp1807
I268446761
aI2106637
atRp1808
I30
sg2
((lp1809
I8398611
aI67115551
atRp1810
I83
sg2
((lp1811
I4199953
aI557831
atRp1812
I139
sg2
((lp1813
I268442665
aI2106637
atRp1814
I102
sg2
((lp1815
I8398611
aI2106637
atRp1816
I54
sg2
((lp1817
I134224677
aI557831
atRp1818
I128
sg2
((lp1819
I268446761
aI16795671
atRp1820
I42
sg2
((lp1821
I33560861
aI134224677
atRp1822
I9
sg2
((lp1823
I69634
aI1082379
atRp1824
I163
sg2
((lp1825
I73730
aI2114829
atRp1826
I169
sg2
((lp1827
I4228625
aI8423187
atRp1828
I40
sg2
((lp1829
I8406803
aI134236965
atRp1830
I22
sg2
((lp1831
I2114829
aI134253349
atRp1832
I122
sg2
((lp1833
I1053707
aI67127839
atRp1834
I137
sg2
((lp1835
I135427
aI134253349
atRp1836
I133
sg2
((lp1837
I81922
aI69634
atRp1838
I51
sg2
((lp1839
I268442665
aI1057803
atRp1840
I113
sg2
((lp1841
I1065995
aI33564957
atRp1842
I147
sg2
((lp1843
I266757
aI2102541
atRp1844
I85
sg2
((lp1845
I98306
aI73730
atRp1846
I51
sg2
((lp1847
I4204049
aI270853
atRp1848
I94
sg2
((lp1849
I69634
aI33560861
atRp1850
I89
sg2
((lp1851
I2106637
aI33564957
atRp1852
I64
sg2
((lp1853
I33560861
aI279045
atRp1854
I152
sg2
((lp1855
I164099
aI33560861
atRp1856
I153
sg2
((lp1857
I33564957
aI16812055
atRp1858
I47
sg2
((lp1859
I268442665
aI33589533
atRp1860
I27
sg2
((lp1861
I8406803
aI33573149
atRp1862
I26
sg2
((lp1863
I557831
aI67127839
atRp1864
I141
sg2
((lp1865
I2131213
aI279045
atRp1866
I145
sg2
((lp1867
I69634
aI2106637
atRp1868
I169
sg2
((lp1869
I81922
aI16795671
atRp1870
I98
sg2
((lp1871
I268442665
aI16812055
atRp1872
I42
sg2
((lp1873
I33564957
aI295429
atRp1874
I152
sg2
((lp1875
I8406803
aI139523
atRp1876
I165
sg2
((lp1877
I4199953
aI67119647
atRp1878
I115
sg2
((lp1879
I4212241
aI2102541
atRp1880
I114
sg2
((lp1881
I268471337
aI134236965
atRp1882
I11
sg2
((lp1883
I268454953
aI8394515
atRp1884
I76
sg2
((lp1885
I279045
aI67115551
atRp1886
I143
sg2
((lp1887
I268442665
aI67119647
atRp1888
I18
sg2
((lp1889
I4228625
aI33573149
atRp1890
I108
sg2
((lp1891
I4228625
aI134253349
atRp1892
I37
sg2
((lp1893
I81922
aI134224677
atRp1894
I135
sg2
((lp1895
I4212241
aI16795671
atRp1896
I38
sg2
((lp1897
I268442665
aI533255
atRp1898
I101
sg2
((lp1899
I147715
aI279045
atRp1900
I84
sg2
((lp1901
I268454953
aI541447
atRp1902
I28
sg2
((lp1903
I147715
aI529159
atRp1904
I138
sg2
((lp1905
I1053707
aI2106637
atRp1906
I121
sg2
((lp1907
I295429
aI557831
atRp1908
I65
sg2
((lp1909
I4199953
aI4228625
atRp1910
I21
sg2
((lp1911
I135427
aI533255
atRp1912
I138
sg2
((lp1913
I4204049
aI2114829
atRp1914
I114
sg2
((lp1915
I2131213
aI67127839
atRp1916
I131
sg2
((lp1917
I268446761
aI8423187
atRp1918
I76
sg2
((lp1919
I4204049
aI541447
atRp1920
I139
sg2
((lp1921
I134228773
aI2102541
atRp1922
I122
sg2
((lp1923
I2114829
aI533255
atRp1924
I130
sg2
((lp1925
I2131213
aI67119647
atRp1926
I131
sg2
((lp1927
I164099
aI2114829
atRp1928
I161
sg2
((lp1929
I147715
aI1065995
atRp1930
I90
sg2
((lp1931
I1082379
aI8406803
atRp1932
I134
sg2
((lp1933
I2114829
aI16787479
atRp1934
I124
sg2
((lp1935
I139523
aI134253349
atRp1936
I133
sg2
((lp1937
I268471337
aI33564957
atRp1938
I27
sg2
((lp1939
I1065995
aI33560861
atRp1940
I147
sg2
((lp1941
I4228625
aI557831
atRp1942
I78
sg2
((lp1943
I268471337
aI69634
atRp1944
I117
sg2
((lp1945
I1065995
aI295429
atRp1946
I136
sg2
((lp1947
I268454953
aI268442665
atRp1948
I1
sg2
((lp1949
I69634
aI533255
atRp1950
I151
sg2
((lp1951
I268454953
aI16812055
atRp1952
I42
sg2
((lp1953
I134228773
aI16795671
atRp1954
I45
sg2
((lp1955
I4212241
aI279045
atRp1956
I94
sg2
((lp1957
I295429
aI16783383
atRp1958
I158
sg2
((lp1959
I8406803
aI135427
atRp1960
I165
sg2
((lp1961
I268454953
aI16783383
atRp1962
I42
sg2
((lp1963
I268471337
aI139523
atRp1964
I109
sg2
((lp1965
I2114829
aI67115551
atRp1966
I131
sg2
((lp1967
I2106637
aI33573149
atRp1968
I129
sg2
((lp1969
I268442665
aI69634
atRp1970
I39
sg2
((lp1971
I2106637
aI533255
atRp1972
I67
sg2
((lp1973
I1057803
aI67127839
atRp1974
I137
sg2
((lp1975
I295429
aI67127839
atRp1976
I143
sg2
((lp1977
I295429
aI16812055
atRp1978
I95
sg2
((lp1979
I4204049
aI134228773
atRp1980
I37
sg2
((lp1981
I4212241
aI541447
atRp1982
I78
sg2
((lp1983
I2131213
aI16783383
atRp1984
I124
sg2
((lp1985
I4199953
aI33589533
atRp1986
I108
sg2
((lp1987
I1057803
aI529159
atRp1988
I123
sg2
((lp1989
I134236965
aI557831
atRp1990
I128
sg2
((lp1991
I4228625
aI67119647
atRp1992
I115
sg2
((lp1993
I33573149
aI529159
atRp1994
I149
sg2
((lp1995
I67144223
aI67115551
atRp1996
I3
sg2
((lp1997
I139523
aI2131213
atRp1998
I161
sg2
((lp1999
I98306
aI1065995
atRp2000
I163
sg2
((lp2001
I268442665
aI1065995
atRp2002
I113
sg2
((lp2003
I4212241
aI67115551
atRp2004
I115
sg2
((lp2005
I268454953
aI139523
atRp2006
I109
sg2
((lp2007
I1082379
aI67127839
atRp2008
I137
sg2
((lp2009
I16787479
aI16795671
atRp2010
I10
sg2
((lp2011
I1053707
aI33589533
atRp2012
I147
sg2
((lp2013
I8394515
aI541447
atRp2014
I150
sg2
((lp2015
I268446761
aI16812055
atRp2016
I42
sg2
((lp2017
I69634
aI16795671
atRp2018
I162
sg2
((lp2019
I33560861
aI16795671
atRp2020
I47
sg2
((lp2021
I81922
aI279045
atRp2022
I97
sg2
((lp2023
I67119647
aI16812055
atRp2024
I49
sg2
((lp2025
I134236965
aI67127839
atRp2026
I7
sg2
((lp2027
I529159
aI67119647
atRp2028
I141
sg2
((lp2029
I73730
aI16787479
atRp2030
I98
sg2
((lp2031
I8394515
aI33564957
atRp2032
I80
sg2
((lp2033
I8423187
aI134224677
atRp2034
I81
sg2
((lp2035
I4228625
aI2131213
atRp2036
I48
sg2
((lp2037
I2106637
aI16795671
atRp2038
I124
sg2
((lp2039
I268471337
aI134253349
atRp2040
I4
sg2
((lp2041
I135427
aI2131213
atRp2042
I161
sg2
((lp2043
I4204049
aI1065995
atRp2044
I126
sg2
((lp2045
I16795671
aI541447
atRp2046
I93
sg2
((lp2047
I268471337
aI8406803
atRp2048
I76
sg2
((lp2049
I81922
aI533255
atRp2050
I151
sg2
((lp2051
I268454953
aI67119647
atRp2052
I18
sg2
((lp2053
I268442665
aI33573149
atRp2054
I27
sg2
((lp2055
I134253349
aI67144223
atRp2056
I7
sg2
((lp2057
I67119647
aI16783383
atRp2058
I49
sg2
((lp2059
I8398611
aI2114829
atRp2060
I119
sg2
((lp2061
I8423187
aI270853
atRp2062
I164
sg2
((lp2063
I1053707
aI164099
atRp2064
I148
sg2
((lp2065
I268454953
aI1057803
atRp2066
I113
sg2
((lp2067
I164099
aI134224677
atRp2068
I133
sg2
((lp2069
I2114829
aI295429
atRp2070
I145
sg2
((lp2071
I8394515
aI134253349
atRp2072
I81
sg2
((lp2073
I8394515
aI266757
atRp2074
I106
sg2
((lp2075
I8394515
aI134224677
atRp2076
I22
sg2
((lp2077
I2102541
aI279045
atRp2078
I145
sg2
((lp2079
I139523
aI2102541
atRp2080
I161
sg2
((lp2081
I8423187
aI33573149
atRp2082
I80
sg2
((lp2083
I8423187
aI67144223
atRp2084
I25
sg2
((lp2085
I2131213
aI67115551
atRp2086
I131
sg2
((lp2087
I2114829
aI2102541
atRp2088
I29
sg2
((lp2089
I4228625
aI533255
atRp2090
I139
sg2
((lp2091
I266757
aI33564957
atRp2092
I152
sg2
((lp2093
I4204049
aI135427
atRp2094
I167
sg2
((lp2095
I2131213
aI295429
atRp2096
I85
sg2
((lp2097
I4204049
aI33560861
atRp2098
I108
sg2
((lp2099
I8398611
aI67144223
atRp2100
I83
sg2
((lp2101
I2102541
aI67127839
atRp2102
I131
sg2
((lp2103
I4228625
aI98306
atRp2104
I118
sg2
((lp2105
I164099
aI16787479
atRp2106
I160
sg2
((lp2107
I2106637
aI134253349
atRp2108
I122
sg2
((lp2109
I164099
aI33573149
atRp2110
I153
sg2
((lp2111
I8406803
aI541447
atRp2112
I88
sg2
((lp2113
I268442665
aI147715
atRp2114
I109
sg2
((lp2115
I1053707
aI8394515
atRp2116
I68
sg2
((lp2117
I2114829
aI33560861
atRp2118
I129
sg2
((lp2119
I268442665
aI73730
atRp2120
I117
sg2
((lp2121
I268442665
aI270853
atRp2122
I104
sg2
((lp2123
I4212241
aI8423187
atRp2124
I99
sg2
((lp2125
I73730
aI541447
atRp2126
I151
sg2
((lp2127
I529159
aI67115551
atRp2128
I69
sg2
((lp2129
I164099
aI533255
atRp2130
I138
sg2
((lp2131
I1082379
aI134236965
atRp2132
I125
sg2
((lp2133
I164099
aI541447
atRp2134
I138
sg2
((lp2135
I268471337
aI2106637
atRp2136
I102
sg2
((lp2137
I8406803
aI134224677
atRp2138
I81
sg2
((lp2139
I1065995
aI2106637
atRp2140
I121
sg2
((lp2141
I147715
aI134253349
atRp2142
I133
sg2
((lp2143
I134224677
aI533255
atRp2144
I128
sg2
((lp2145
I4204049
aI1082379
atRp2146
I126
sg2
((lp2147
I134224677
aI279045
atRp2148
I132
sg2
((lp2149
I33564957
aI533255
atRp2150
I82
sg2
((lp2151
I139523
aI541447
atRp2152
I138
sg2
((lp2153
I69634
aI1057803
atRp2154
I163
sg2
((lp2155
I2102541
aI67119647
atRp2156
I131
sg2
((lp2157
I1065995
aI2131213
atRp2158
I121
sg2
((lp2159
I295429
aI529159
atRp2160
I127
sg2
((lp2161
I2106637
aI134236965
atRp2162
I122
sg2
((lp2163
I98306
aI33560861
atRp2164
I155
sg2
((lp2165
I1082379
aI1053707
atRp2166
I36
sg2
((lp2167
I266757
aI16783383
atRp2168
I95
sg2
((lp2169
I1082379
aI33573149
atRp2170
I147
sg2
((lp2171
I2102541
aI295429
atRp2172
I145
sg2
((lp2173
I33589533
aI33560861
atRp2174
I5
sg2
((lp2175
I4228625
aI270853
atRp2176
I156
sg2
((lp2177
I268454953
aI2102541
atRp2178
I102
sg2
((lp2179
I268446761
aI557831
atRp2180
I101
sg2
((lp2181
I4199953
aI134236965
atRp2182
I112
sg2
((lp2183
I8398611
aI33573149
atRp2184
I80
sg2
((lp2185
I4228625
aI1065995
atRp2186
I126
sg2
((lp2187
I67119647
aI541447
atRp2188
I141
sg2
((lp2189
I268471337
aI67144223
atRp2190
I6
sg2
((lp2191
I69634
aI16783383
atRp2192
I98
sg2
((lp2193
I270853
aI16795671
atRp2194
I158
sg2
((lp2195
I1065995
aI33573149
atRp2196
I79
sg2
((lp2197
I135427
aI33564957
atRp2198
I153
sg2
((lp2199
I135427
aI541447
atRp2200
I138
sg2
((lp2201
I33573149
aI16787479
atRp2202
I47
sg2
((lp2203
I270853
aI134253349
atRp2204
I132
sg2
((lp2205
I67119647
aI67115551
atRp2206
I3
sg2
((lp2207
I69634
aI541447
atRp2208
I151
sg2
((lp2209
I268471337
aI67115551
atRp2210
I18
sg2
((lp2211
I4204049
aI295429
atRp2212
I156
sg2
((lp2213
I2114829
aI134228773
atRp2214
I122
sg2
((lp2215
I81922
aI16812055
atRp2216
I162
sg2
((lp2217
I139523
aI270853
atRp2218
I84
sg2
((lp2219
I8394515
aI67127839
atRp2220
I83
sg2
((lp2221
I147715
aI8423187
atRp2222
I165
sg2
((lp2223
I268471337
aI1065995
atRp2224
I113
sg2
((lp2225
I1053707
aI2114829
atRp2226
I121
sg2
((lp2227
I295429
aI533255
atRp2228
I127
sg2
((lp2229
I4212241
aI8406803
atRp2230
I40
sg2
((lp2231
I266757
aI533255
atRp2232
I127
sg2
((lp2233
I4204049
aI2106637
atRp2234
I48
sg2
((lp2235
I268471337
aI8423187
atRp2236
I19
sg2
((lp2237
I4204049
aI2102541
atRp2238
I114
sg2
((lp2239
I268471337
aI1053707
atRp2240
I113
sg2
((lp2241
I135427
aI33560861
atRp2242
I87
sg2
((lp2243
I139523
aI2114829
atRp2244
I161
sg2
((lp2245
I268442665
aI164099
atRp2246
I109
sg2
((lp2247
I8423187
aI67119647
atRp2248
I83
sg2
((lp2249
I8406803
aI2114829
atRp2250
I54
sg2
((lp2251
I1082379
aI266757
atRp2252
I136
sg2
((lp2253
I1082379
aI139523
atRp2254
I148
sg2
((lp2255
I268471337
aI268454953
atRp2256
I1
sg2
((lp2257
I268471337
aI16812055
atRp2258
I12
sg2
((lp2259
I8398611
aI16795671
atRp2260
I73
sg2
((lp2261
I33573149
aI541447
atRp2262
I82
sg2
((lp2263
I268446761
aI98306
atRp2264
I117
sg2
((lp2265
I134224677
aI16795671
atRp2266
I45
sg2
((lp2267
I135427
aI16795671
atRp2268
I160
sg2
((lp2269
I4204049
aI69634
atRp2270
I168
sg2
((lp2271
I81922
aI33564957
atRp2272
I155
sg2
((lp2273
I1082379
aI2106637
atRp2274
I121
sg2
((lp2275
I4204049
aI8406803
atRp2276
I99
sg2
((lp2277
I268454953
aI4228625
atRp2278
I91
sg2
((lp2279
I139523
aI295429
atRp2280
I142
sg2
((lp2281
I8398611
aI533255
atRp2282
I88
sg2
((lp2283
I33589533
aI2114829
atRp2284
I129
sg2
((lp2285
I4199953
aI2102541
atRp2286
I48
sg2
((lp2287
I4204049
aI16795671
atRp2288
I100
sg2
((lp2289
I270853
aI67127839
atRp2290
I143
sg2
((lp2291
I268442665
aI2114829
atRp2292
I102
sg2
((lp2293
I4228625
aI134228773
atRp2294
I112
sg2
((lp2295
I4204049
aI268442665
atRp2296
I91
sg2
((lp2297
I8398611
aI134253349
atRp2298
I81
sg2
((lp2299
I8398611
aI8394515
atRp2300
I17
sg2
((lp2301
I1053707
aI541447
atRp2302
I123
sg2
((lp2303
I81922
aI134236965
atRp2304
I59
sg2
((lp2305
I33564957
aI529159
atRp2306
I149
sg2
((lp2307
I4199953
aI1065995
atRp2308
I126
sg2
((lp2309
I33560861
aI134253349
atRp2310
I31
sg2
((lp2311
I268471337
aI4204049
atRp2312
I91
sg2
((lp2313
I268471337
aI279045
atRp2314
I104
sg2
((lp2315
I81922
aI1057803
atRp2316
I163
sg2
((lp2317
I8423187
aI67115551
atRp2318
I83
sg2
((lp2319
I81922
aI1082379
atRp2320
I163
sg2
((lp2321
I69634
aI33573149
atRp2322
I155
sg2
((lp2323
I2114829
aI134224677
atRp2324
I122
sg2
((lp2325
I73730
aI33589533
atRp2326
I155
sg2
((lp2327
I268446761
aI533255
atRp2328
I28
sg2
((lp2329
I268471337
aI16787479
atRp2330
I42
sg2
((lp2331
I2102541
aI16787479
atRp2332
I124
sg2
((lp2333
I1053707
aI33564957
atRp2334
I147
sg2
((lp2335
I295429
aI134253349
atRp2336
I58
sg2
((lp2337
I8394515
aI16783383
atRp2338
I23
sg2
((lp2339
I4212241
aI266757
atRp2340
I156
sg2
((lp2341
I268442665
aI33564957
atRp2342
I27
sg2
((lp2343
I2102541
aI33560861
atRp2344
I64
sg2
((lp2345
I147715
aI139523
atRp2346
I52
sg2
((lp2347
I557831
aI16812055
atRp2348
I93
sg2
((lp2349
I81922
aI8394515
atRp2350
I166
sg2
((lp2351
I1053707
aI16787479
atRp2352
I140
sg2
((lp2353
I8394515
aI33589533
atRp2354
I80
sg2
((lp2355
I134253349
aI557831
atRp2356
I55
sg2
((lp2357
I268454953
aI1053707
atRp2358
I113
sg2
((lp2359
I135427
aI67115551
atRp2360
I72
sg2
((lp2361
I73730
aI33560861
atRp2362
I155
sg2
((lp2363
I1053707
aI279045
atRp2364
I136
sg2
((lp2365
I1065995
aI67119647
atRp2366
I137
sg2
((lp2367
I69634
aI16787479
atRp2368
I162
sg2
((lp2369
I2102541
aI557831
atRp2370
I130
sg2
((lp2371
I268446761
aI134253349
atRp2372
I11
sg2
((lp2373
I2131213
aI134224677
atRp2374
I122
sg2
((lp2375
I4228625
aI1053707
atRp2376
I126
sg2
((lp2377
I4204049
aI268446761
atRp2378
I24
sg2
((lp2379
I268446761
aI67115551
atRp2380
I18
sg2
((lp2381
I135427
aI67127839
atRp2382
I144
sg2
((lp2383
I8423187
aI16783383
atRp2384
I73
sg2
((lp2385
I2102541
aI16783383
atRp2386
I57
sg2
((lp2387
I268471337
aI1082379
atRp2388
I34
sg2
((lp2389
I4228625
aI295429
atRp2390
I94
sg2
((lp2391
I266757
aI134224677
atRp2392
I58
sg2
((lp2393
I134253349
aI67119647
atRp2394
I20
sg2
((lp2395
I67127839
aI16783383
atRp2396
I49
sg2
((lp2397
I139523
aI33573149
atRp2398
I153
sg2
((lp2399
I134236965
aI16795671
atRp2400
I14
sg2
((lp2401
I135427
aI279045
atRp2402
I142
sg2
((lp2403
I295429
aI67119647
atRp2404
I143
sg2
((lp2405
I8398611
aI135427
atRp2406
I165
sg2
((lp2407
I2131213
aI33560861
atRp2408
I129
sg2
((lp2409
I73730
aI533255
atRp2410
I92
sg2
((lp2411
I1082379
aI2114829
atRp2412
I121
sg2
((lp2413
I268454953
aI529159
atRp2414
I101
sg2
((lp2415
I33564957
aI33573149
atRp2416
I5
sg2
((lp2417
I270853
aI67119647
atRp2418
I71
sg2
((lp2419
I8398611
aI295429
atRp2420
I164
sg2
((lp2421
I268454953
aI1065995
atRp2422
I34
sg2
((lp2423
I33589533
aI67119647
atRp2424
I35
sg2
((lp2425
I279045
aI16783383
atRp2426
I158
sg2
((lp2427
I164099
aI2102541
atRp2428
I161
sg2
((lp2429
I147715
aI1053707
atRp2430
I148
sg2
((lp2431
I2106637
aI16783383
atRp2432
I124
sg2
((lp2433
I8398611
aI139523
atRp2434
I107
sg2
((lp2435
I4228625
aI1057803
atRp2436
I126
sg2
((lp2437
I134224677
aI67115551
atRp2438
I7
sg2
((lp2439
I4199953
aI81922
atRp2440
I168
sg2
((lp2441
I8394515
aI16812055
atRp2442
I73
sg2
((lp2443
I8398611
aI266757
atRp2444
I164
sg2
((lp2445
I268442665
aI134224677
atRp2446
I4
sg2
((lp2447
I135427
aI134224677
atRp2448
I60
sg2
((lp2449
I541447
aI67115551
atRp2450
I141
sg2
((lp2451
I73730
aI8394515
atRp2452
I166
sg2
((lp2453
I147715
aI16795671
atRp2454
I96
sg2
((lp2455
I279045
aI541447
atRp2456
I65
sg2
((lp2457
I268446761
aI135427
atRp2458
I109
sg2
((lp2459
I4199953
aI73730
atRp2460
I168
sg2
((lp2461
I268442665
aI98306
atRp2462
I117
sg2
((lp2463
I98306
aI2131213
atRp2464
I120
sg2
((lp2465
I4199953
aI2114829
atRp2466
I114
sg2
((lp2467
I266757
aI134236965
atRp2468
I132
sg2
((lp2469
I557831
aI541447
atRp2470
I46
sg2
((lp2471
I4228625
aI134224677
atRp2472
I112
sg2
((lp2473
I4212241
aI529159
atRp2474
I139
sg2
((lp2475
I98306
aI67115551
atRp2476
I146
sg2
((lp2477
I4212241
aI33564957
atRp2478
I108
sg2
((lp2479
I1082379
aI541447
atRp2480
I123
sg2
((lp2481
I134224677
aI541447
atRp2482
I128
sg2
((lp2483
I279045
aI557831
atRp2484
I127
sg2
((lp2485
I268446761
aI8398611
atRp2486
I19
sg2
((lp2487
I147715
aI557831
atRp2488
I138
sg2
((lp2489
I73730
aI8398611
atRp2490
I111
sg2
((lp2491
I33589533
aI134228773
atRp2492
I31
sg2
((lp2493
I268471337
aI268446761
atRp2494
I1
sg2
((lp2495
I268446761
aI81922
atRp2496
I117
sg2
((lp2497
I69634
aI1065995
atRp2498
I163
sg2
((lp2499
I147715
aI67144223
atRp2500
I144
sg2
((lp2501
I134253349
aI541447
atRp2502
I128
sg2
((lp2503
I98306
aI139523
atRp2504
I159
sg2
((lp2505
I147715
aI2131213
atRp2506
I161
sg2
((lp2507
I4204049
aI164099
atRp2508
I167
sg2
((lp2509
I2106637
aI2102541
atRp2510
I29
sg2
((lp2511
I4228625
aI8398611
atRp2512
I99
sg2
((lp2513
I1082379
aI33564957
atRp2514
I147
sg2
((lp2515
I98306
aI135427
atRp2516
I159
sg2
((lp2517
I73730
aI134224677
atRp2518
I135
sg2
((lp2519
I268446761
aI164099
atRp2520
I109
sg2
((lp2521
I268471337
aI4212241
atRp2522
I91
sg2
((lp2523
I268446761
aI33589533
atRp2524
I27
sg2
((lp2525
I4199953
aI67144223
atRp2526
I115
sg2
((lp2527
I73730
aI266757
atRp2528
I154
sg2
((lp2529
I8406803
aI33589533
atRp2530
I80
sg2
((lp2531
I2106637
aI2114829
atRp2532
I29
sg2
((lp2533
I4204049
aI557831
atRp2534
I139
sg2
((lp2535
I266757
aI270853
atRp2536
I50
sg2
((lp2537
I268471337
aI270853
atRp2538
I104
sg2
((lp2539
I270853
aI16787479
atRp2540
I95
sg2
((lp2541
I270853
aI16783383
atRp2542
I158
sg2
((lp2543
I268471337
aI529159
atRp2544
I101
sg2
((lp2545
I295429
aI33560861
atRp2546
I152
sg2
((lp2547
I1057803
aI16795671
atRp2548
I140
sg2
((lp2549
I1057803
aI33560861
atRp2550
I147
sg2
((lp2551
I268446761
aI139523
atRp2552
I33
sg2
((lp2553
I1053707
aI2131213
atRp2554
I121
sg2
((lp2555
I2131213
aI557831
atRp2556
I67
sg2
((lp2557
I33564957
aI2131213
atRp2558
I129
sg2
((lp2559
I134236965
aI134224677
atRp2560
I2
sg2
((lp2561
I134224677
aI67144223
atRp2562
I20
sg2
((lp2563
I268442665
aI2131213
atRp2564
I102
sg2
((lp2565
I33589533
aI33573149
atRp2566
I5
sg2
((lp2567
I4228625
aI33560861
atRp2568
I108
sg2
((lp2569
I147715
aI295429
atRp2570
I142
sg2
((lp2571
I8398611
aI147715
atRp2572
I165
sg2
((lp2573
I268442665
aI541447
atRp2574
I101
sg2
((lp2575
I8423187
aI557831
atRp2576
I88
sg2
((lp2577
I98306
aI2114829
atRp2578
I169
sg2
((lp2579
I268471337
aI541447
atRp2580
I101
sg2
((lp2581
I4199953
aI533255
atRp2582
I139
sg2
((lp2583
I4228625
aI67127839
atRp2584
I115
sg2
((lp2585
I8423187
aI134253349
atRp2586
I22
sg2
((lp2587
I295429
aI541447
atRp2588
I127
sg2
((lp2589
I8406803
aI266757
atRp2590
I164
sg2
((lp2591
I2114829
aI270853
atRp2592
I145
sg2
((lp2593
I268454953
aI295429
atRp2594
I104
sg2
((lp2595
I134253349
aI16795671
atRp2596
I45
sg2
((lp2597
I134236965
aI67144223
atRp2598
I20
sg2
((lp2599
I69634
aI8406803
atRp2600
I166
sg2
((lp2601
I81922
aI134228773
atRp2602
I135
sg2
((lp2603
I268471337
aI4199953
atRp2604
I91
sg2
((lp2605
I268471337
aI73730
atRp2606
I117
sg2
((lp2607
I2102541
aI16795671
atRp2608
I124
sg2
((lp2609
I268471337
aI67119647
atRp2610
I18
sg2
((lp2611
I134253349
aI533255
atRp2612
I128
sg2
((lp2613
I8398611
aI16787479
atRp2614
I23
sg2
((lp2615
I73730
aI2102541
atRp2616
I169
sg2
((lp2617
I4204049
aI1057803
atRp2618
I62
sg2
((lp2619
I135427
aI134236965
atRp2620
I133
sg2
((lp2621
I135427
aI16787479
atRp2622
I160
sg2
((lp2623
I4204049
aI8398611
atRp2624
I40
sg2
((lp2625
I268454953
aI69634
atRp2626
I117
sg2
((lp2627
I268442665
aI135427
atRp2628
I33
sg2
((lp2629
I4228625
aI81922
atRp2630
I168
sg2
((lp2631
I1057803
aI134253349
atRp2632
I125
sg2
((lp2633
I1082379
aI16795671
atRp2634
I140
sg2
((lp2635
I33564957
aI541447
atRp2636
I149
sg2
((lp2637
I134236965
aI2131213
atRp2638
I122
sg2
((lp2639
I268471337
aI1057803
atRp2640
I113
sg2
((lp2641
I1053707
aI134228773
atRp2642
I125
sg2
((lp2643
I266757
aI67115551
atRp2644
I71
sg2
((lp2645
I268446761
aI2102541
atRp2646
I102
sg2
((lp2647
I4212241
aI134253349
atRp2648
I112
sg2
((lp2649
I4228625
aI541447
atRp2650
I139
sg2
((lp2651
I4204049
aI2131213
atRp2652
I114
sg2
((lp2653
I147715
aI134224677
atRp2654
I133
s.